Archive member included because of file (symbol)

/opt/devkitpro/libnds/lib/libfat.a(libfat.o)
                              bootstrap.o (fatInitDefault)
/opt/devkitpro/libnds/lib/libfat.a(partition.o)
                              /opt/devkitpro/libnds/lib/libfat.a(libfat.o) (_FAT_partition_destructor)
/opt/devkitpro/libnds/lib/libfat.a(cache.o)
                              /opt/devkitpro/libnds/lib/libfat.a(partition.o) (_FAT_cache_destructor)
/opt/devkitpro/libnds/lib/libfat.a(directory.o)
                              /opt/devkitpro/libnds/lib/libfat.a(libfat.o) (_FAT_directory_getVolumeLabel)
/opt/devkitpro/libnds/lib/libfat.a(disc.o)
                              /opt/devkitpro/libnds/lib/libfat.a(libfat.o) (_FAT_disc_interfaces)
/opt/devkitpro/libnds/lib/libfat.a(fatdir.o)
                              /opt/devkitpro/libnds/lib/libfat.a(libfat.o) (_FAT_link_r)
/opt/devkitpro/libnds/lib/libfat.a(fatfile.o)
                              /opt/devkitpro/libnds/lib/libfat.a(libfat.o) (_FAT_ftruncate_r)
/opt/devkitpro/libnds/lib/libfat.a(file_allocation_table.o)
                              /opt/devkitpro/libnds/lib/libfat.a(directory.o) (_FAT_fat_nextCluster)
/opt/devkitpro/libnds/lib/libfat.a(filetime.o)
                              /opt/devkitpro/libnds/lib/libfat.a(directory.o) (_FAT_filetime_to_time_t)
/opt/devkitpro/libnds/lib/libnds9.a(console.o)
                              bootstrap.o (consoleDemoInit)
/opt/devkitpro/libnds/lib/libnds9.a(dldi.o)
                              /opt/devkitpro/libnds/lib/libfat.a(disc.o) (dldiGetInternal)
/opt/devkitpro/libnds/lib/libnds9.a(initSystem.o)
                              /opt/devkitpro/devkitARM/lib/gcc/arm-eabi/4.4.3/../../../../arm-eabi/lib/thumb/ds_arm9_crt0.o (initSystem)
/opt/devkitpro/libnds/lib/libnds9.a(fifosystem.o)
                              /opt/devkitpro/libnds/lib/libnds9.a(initSystem.o) (fifoSetValue32Handler)
/opt/devkitpro/libnds/lib/libnds9.a(interrupts.o)
                              /opt/devkitpro/libnds/lib/libnds9.a(fifosystem.o) (irqSet)
/opt/devkitpro/libnds/lib/libnds9.a(libnds_exit.o)
                              /opt/devkitpro/devkitARM/lib/gcc/arm-eabi/4.4.3/../../../../arm-eabi/lib/thumb/ds_arm9_crt0.o (__libnds_exit)
/opt/devkitpro/libnds/lib/libnds9.a(reset.o)
                              nds_loader_arm9.o (resetARM7)
/opt/devkitpro/libnds/lib/libnds9.a(dldi_stub.o)
                              /opt/devkitpro/libnds/lib/libnds9.a(dldi.o) (_io_dldi_stub)
/opt/devkitpro/libnds/lib/libnds9.a(mpu_setup.o)
                              /opt/devkitpro/devkitARM/lib/gcc/arm-eabi/4.4.3/../../../../arm-eabi/lib/thumb/ds_arm9_crt0.o (__libnds_mpu_setup)
/opt/devkitpro/libnds/lib/libnds9.a(biosCalls.o)
                              /opt/devkitpro/libnds/lib/libnds9.a(fifosystem.o) (swiIntrWait)
/opt/devkitpro/libnds/lib/libnds9.a(debugprint.o)
                              /opt/devkitpro/libnds/lib/libnds9.a(console.o) (nocashMessage)
/opt/devkitpro/libnds/lib/libnds9.a(interruptDispatcher.o)
                              /opt/devkitpro/libnds/lib/libnds9.a(interrupts.o) (IntrMain)
/opt/devkitpro/libnds/lib/libnds9.a(swiSoftReset.o)
                              nds_loader_arm9.o (swiSoftReset)
/opt/devkitpro/libnds/lib/libnds9.a(default_font.bin.o)
                              /opt/devkitpro/libnds/lib/libnds9.a(console.o) (default_font_bin)
/opt/devkitpro/libnds/lib/libnds9.a(background.o)
                              /opt/devkitpro/libnds/lib/libnds9.a(console.o) (bgState)
/opt/devkitpro/libnds/lib/libnds9.a(system.o)
                              /opt/devkitpro/libnds/lib/libnds9.a(libnds_exit.o) (powerOn)
/opt/devkitpro/libnds/lib/libnds9.a(trig.o)
                              /opt/devkitpro/libnds/lib/libnds9.a(background.o) (sinLerp)
/opt/devkitpro/devkitARM/lib/gcc/arm-eabi/4.4.3/thumb/libgcc.a(_udivsi3.o)
                              /opt/devkitpro/libnds/lib/libfat.a(partition.o) (__aeabi_uidiv)
/opt/devkitpro/devkitARM/lib/gcc/arm-eabi/4.4.3/thumb/libgcc.a(_divsi3.o)
                              /opt/devkitpro/libnds/lib/libfat.a(directory.o) (__aeabi_idiv)
/opt/devkitpro/devkitARM/lib/gcc/arm-eabi/4.4.3/thumb/libgcc.a(_dvmd_tls.o)
                              /opt/devkitpro/devkitARM/lib/gcc/arm-eabi/4.4.3/thumb/libgcc.a(_udivsi3.o) (__div0)
/opt/devkitpro/devkitARM/lib/gcc/arm-eabi/4.4.3/../../../../arm-eabi/lib/thumb/libg.a(lib_a-bsearch.o)
                              /opt/devkitpro/libnds/lib/libnds9.a(trig.o) (bsearch)
/opt/devkitpro/devkitARM/lib/gcc/arm-eabi/4.4.3/../../../../arm-eabi/lib/thumb/libg.a(lib_a-impure.o)
                              /opt/devkitpro/libnds/lib/libnds9.a(console.o) (_impure_ptr)
/opt/devkitpro/devkitARM/lib/gcc/arm-eabi/4.4.3/../../../../arm-eabi/lib/thumb/libg.a(lib_a-init.o)
                              /opt/devkitpro/devkitARM/lib/gcc/arm-eabi/4.4.3/../../../../arm-eabi/lib/thumb/ds_arm9_crt0.o (__libc_init_array)
/opt/devkitpro/devkitARM/lib/gcc/arm-eabi/4.4.3/../../../../arm-eabi/lib/thumb/libg.a(lib_a-iprintf.o)
                              /opt/devkitpro/libnds/lib/libnds9.a(console.o) (iprintf)
/opt/devkitpro/devkitARM/lib/gcc/arm-eabi/4.4.3/../../../../arm-eabi/lib/thumb/libg.a(lib_a-lcltime_r.o)
                              /opt/devkitpro/libnds/lib/libfat.a(filetime.o) (localtime_r)
/opt/devkitpro/devkitARM/lib/gcc/arm-eabi/4.4.3/../../../../arm-eabi/lib/thumb/libg.a(lib_a-locale.o)
                              /opt/devkitpro/libnds/lib/libfat.a(directory.o) (__mb_cur_max)
/opt/devkitpro/devkitARM/lib/gcc/arm-eabi/4.4.3/../../../../arm-eabi/lib/thumb/libg.a(lib_a-malloc.o)
                              /opt/devkitpro/libnds/lib/libfat.a(libfat.o) (free)
/opt/devkitpro/devkitARM/lib/gcc/arm-eabi/4.4.3/../../../../arm-eabi/lib/thumb/libg.a(lib_a-mallocr.o)
                              /opt/devkitpro/devkitARM/lib/gcc/arm-eabi/4.4.3/../../../../arm-eabi/lib/thumb/libg.a(lib_a-malloc.o) (_malloc_r)
/opt/devkitpro/devkitARM/lib/gcc/arm-eabi/4.4.3/../../../../arm-eabi/lib/thumb/libg.a(lib_a-mbrtowc.o)
                              /opt/devkitpro/libnds/lib/libfat.a(directory.o) (mbrtowc)
/opt/devkitpro/devkitARM/lib/gcc/arm-eabi/4.4.3/../../../../arm-eabi/lib/thumb/libg.a(lib_a-mbsrtowcs.o)
                              /opt/devkitpro/libnds/lib/libfat.a(directory.o) (mbsrtowcs)
/opt/devkitpro/devkitARM/lib/gcc/arm-eabi/4.4.3/../../../../arm-eabi/lib/thumb/libg.a(lib_a-mbtowc_r.o)
                              /opt/devkitpro/devkitARM/lib/gcc/arm-eabi/4.4.3/../../../../arm-eabi/lib/thumb/libg.a(lib_a-locale.o) (__ascii_mbtowc)
/opt/devkitpro/devkitARM/lib/gcc/arm-eabi/4.4.3/../../../../arm-eabi/lib/thumb/libg.a(lib_a-memcmp.o)
                              nds_loader_arm9.o (memcmp)
/opt/devkitpro/devkitARM/lib/gcc/arm-eabi/4.4.3/../../../../arm-eabi/lib/thumb/libg.a(lib_a-memcpy.o)
                              /opt/devkitpro/libnds/lib/libfat.a(libfat.o) (memcpy)
/opt/devkitpro/devkitARM/lib/gcc/arm-eabi/4.4.3/../../../../arm-eabi/lib/thumb/libg.a(lib_a-memmove.o)
                              /opt/devkitpro/libnds/lib/libfat.a(directory.o) (memmove)
/opt/devkitpro/devkitARM/lib/gcc/arm-eabi/4.4.3/../../../../arm-eabi/lib/thumb/libg.a(lib_a-memset.o)
                              nds_loader_arm9.o (memset)
/opt/devkitpro/devkitARM/lib/gcc/arm-eabi/4.4.3/../../../../arm-eabi/lib/thumb/libg.a(lib_a-mktime.o)
                              /opt/devkitpro/libnds/lib/libfat.a(filetime.o) (mktime)
/opt/devkitpro/devkitARM/lib/gcc/arm-eabi/4.4.3/../../../../arm-eabi/lib/thumb/libg.a(lib_a-mktm_r.o)
                              /opt/devkitpro/devkitARM/lib/gcc/arm-eabi/4.4.3/../../../../arm-eabi/lib/thumb/libg.a(lib_a-mktime.o) (__tzcalc_limits)
/opt/devkitpro/devkitARM/lib/gcc/arm-eabi/4.4.3/../../../../arm-eabi/lib/thumb/libg.a(lib_a-mlock.o)
                              /opt/devkitpro/devkitARM/lib/gcc/arm-eabi/4.4.3/../../../../arm-eabi/lib/thumb/libg.a(lib_a-mallocr.o) (__malloc_lock)
/opt/devkitpro/devkitARM/lib/gcc/arm-eabi/4.4.3/../../../../arm-eabi/lib/thumb/libg.a(lib_a-puts.o)
                              bootstrap.o (puts)
/opt/devkitpro/devkitARM/lib/gcc/arm-eabi/4.4.3/../../../../arm-eabi/lib/thumb/libg.a(lib_a-setvbuf.o)
                              /opt/devkitpro/libnds/lib/libnds9.a(console.o) (setvbuf)
/opt/devkitpro/devkitARM/lib/gcc/arm-eabi/4.4.3/../../../../arm-eabi/lib/thumb/libg.a(lib_a-siscanf.o)
                              /opt/devkitpro/libnds/lib/libnds9.a(console.o) (siscanf)
/opt/devkitpro/devkitARM/lib/gcc/arm-eabi/4.4.3/../../../../arm-eabi/lib/thumb/libg.a(lib_a-stdio.o)
                              /opt/devkitpro/devkitARM/lib/gcc/arm-eabi/4.4.3/../../../../arm-eabi/lib/thumb/libg.a(lib_a-siscanf.o) (__seofread)
/opt/devkitpro/devkitARM/lib/gcc/arm-eabi/4.4.3/../../../../arm-eabi/lib/thumb/libg.a(lib_a-strcasecmp.o)
                              /opt/devkitpro/devkitARM/lib/gcc/arm-eabi/4.4.3/../../../../arm-eabi/lib/thumb/libg.a(lib_a-locale.o) (strcasecmp)
/opt/devkitpro/devkitARM/lib/gcc/arm-eabi/4.4.3/../../../../arm-eabi/lib/thumb/libg.a(lib_a-strcat.o)
                              /opt/devkitpro/devkitARM/lib/gcc/arm-eabi/4.4.3/../../../../arm-eabi/lib/thumb/libg.a(lib_a-locale.o) (strcat)
/opt/devkitpro/devkitARM/lib/gcc/arm-eabi/4.4.3/../../../../arm-eabi/lib/thumb/libg.a(lib_a-strchr.o)
                              /opt/devkitpro/libnds/lib/libfat.a(directory.o) (strchr)
/opt/devkitpro/devkitARM/lib/gcc/arm-eabi/4.4.3/../../../../arm-eabi/lib/thumb/libg.a(lib_a-strcmp.o)
                              /opt/devkitpro/libnds/lib/libfat.a(directory.o) (strcmp)
/opt/devkitpro/devkitARM/lib/gcc/arm-eabi/4.4.3/../../../../arm-eabi/lib/thumb/libg.a(lib_a-strcpy.o)
                              nds_loader_arm9.o (strcpy)
/opt/devkitpro/devkitARM/lib/gcc/arm-eabi/4.4.3/../../../../arm-eabi/lib/thumb/libg.a(lib_a-strlcpy.o)
                              /opt/devkitpro/devkitARM/lib/gcc/arm-eabi/4.4.3/../../../../arm-eabi/lib/thumb/libg.a(lib_a-locale.o) (strlcpy)
/opt/devkitpro/devkitARM/lib/gcc/arm-eabi/4.4.3/../../../../arm-eabi/lib/thumb/libg.a(lib_a-strlen.o)
                              nds_loader_arm9.o (strlen)
/opt/devkitpro/devkitARM/lib/gcc/arm-eabi/4.4.3/../../../../arm-eabi/lib/thumb/libg.a(lib_a-strncasecmp.o)
                              /opt/devkitpro/libnds/lib/libfat.a(libfat.o) (strncasecmp)
/opt/devkitpro/devkitARM/lib/gcc/arm-eabi/4.4.3/../../../../arm-eabi/lib/thumb/libg.a(lib_a-strncmp.o)
                              /opt/devkitpro/libnds/lib/libfat.a(libfat.o) (strncmp)
/opt/devkitpro/devkitARM/lib/gcc/arm-eabi/4.4.3/../../../../arm-eabi/lib/thumb/libg.a(lib_a-strncpy.o)
                              /opt/devkitpro/libnds/lib/libfat.a(libfat.o) (strncpy)
/opt/devkitpro/devkitARM/lib/gcc/arm-eabi/4.4.3/../../../../arm-eabi/lib/thumb/libg.a(lib_a-strnlen.o)
                              /opt/devkitpro/libnds/lib/libfat.a(directory.o) (strnlen)
/opt/devkitpro/devkitARM/lib/gcc/arm-eabi/4.4.3/../../../../arm-eabi/lib/thumb/libg.a(lib_a-strpbrk.o)
                              /opt/devkitpro/libnds/lib/libfat.a(directory.o) (strpbrk)
/opt/devkitpro/devkitARM/lib/gcc/arm-eabi/4.4.3/../../../../arm-eabi/lib/thumb/libg.a(lib_a-strrchr.o)
                              /opt/devkitpro/libnds/lib/libfat.a(libfat.o) (strrchr)
/opt/devkitpro/devkitARM/lib/gcc/arm-eabi/4.4.3/../../../../arm-eabi/lib/thumb/libg.a(lib_a-strtol.o)
                              /opt/devkitpro/devkitARM/lib/gcc/arm-eabi/4.4.3/../../../../arm-eabi/lib/thumb/libg.a(lib_a-locale.o) (_strtol_r)
/opt/devkitpro/devkitARM/lib/gcc/arm-eabi/4.4.3/../../../../arm-eabi/lib/thumb/libg.a(lib_a-svfiscanf.o)
                              /opt/devkitpro/devkitARM/lib/gcc/arm-eabi/4.4.3/../../../../arm-eabi/lib/thumb/libg.a(lib_a-siscanf.o) (__ssvfiscanf_r)
/opt/devkitpro/devkitARM/lib/gcc/arm-eabi/4.4.3/../../../../arm-eabi/lib/thumb/libg.a(lib_a-sysclose.o)
                              /opt/devkitpro/libnds/lib/libnds9.a(dldi.o) (close)
/opt/devkitpro/devkitARM/lib/gcc/arm-eabi/4.4.3/../../../../arm-eabi/lib/thumb/libg.a(lib_a-syslseek.o)
                              /opt/devkitpro/libnds/lib/libnds9.a(dldi.o) (lseek)
/opt/devkitpro/devkitARM/lib/gcc/arm-eabi/4.4.3/../../../../arm-eabi/lib/thumb/libg.a(lib_a-sysopen.o)
                              /opt/devkitpro/libnds/lib/libnds9.a(dldi.o) (open)
/opt/devkitpro/devkitARM/lib/gcc/arm-eabi/4.4.3/../../../../arm-eabi/lib/thumb/libg.a(lib_a-sysread.o)
                              /opt/devkitpro/libnds/lib/libnds9.a(dldi.o) (read)
/opt/devkitpro/devkitARM/lib/gcc/arm-eabi/4.4.3/../../../../arm-eabi/lib/thumb/libg.a(lib_a-sysstat.o)
                              nds_loader_arm9.o (stat)
/opt/devkitpro/devkitARM/lib/gcc/arm-eabi/4.4.3/../../../../arm-eabi/lib/thumb/libg.a(lib_a-time.o)
                              /opt/devkitpro/libnds/lib/libfat.a(filetime.o) (time)
/opt/devkitpro/devkitARM/lib/gcc/arm-eabi/4.4.3/../../../../arm-eabi/lib/thumb/libg.a(lib_a-towlower.o)
                              /opt/devkitpro/libnds/lib/libfat.a(directory.o) (towlower)
/opt/devkitpro/devkitARM/lib/gcc/arm-eabi/4.4.3/../../../../arm-eabi/lib/thumb/libg.a(lib_a-towupper.o)
                              /opt/devkitpro/libnds/lib/libfat.a(directory.o) (towupper)
/opt/devkitpro/devkitARM/lib/gcc/arm-eabi/4.4.3/../../../../arm-eabi/lib/thumb/libg.a(lib_a-tzlock.o)
                              /opt/devkitpro/devkitARM/lib/gcc/arm-eabi/4.4.3/../../../../arm-eabi/lib/thumb/libg.a(lib_a-mktm_r.o) (__tz_lock)
/opt/devkitpro/devkitARM/lib/gcc/arm-eabi/4.4.3/../../../../arm-eabi/lib/thumb/libg.a(lib_a-tzvars.o)
                              /opt/devkitpro/devkitARM/lib/gcc/arm-eabi/4.4.3/../../../../arm-eabi/lib/thumb/libg.a(lib_a-mktime.o) (_daylight)
/opt/devkitpro/devkitARM/lib/gcc/arm-eabi/4.4.3/../../../../arm-eabi/lib/thumb/libg.a(lib_a-ungetc.o)
                              /opt/devkitpro/devkitARM/lib/gcc/arm-eabi/4.4.3/../../../../arm-eabi/lib/thumb/libg.a(lib_a-svfiscanf.o) (__submore)
/opt/devkitpro/devkitARM/lib/gcc/arm-eabi/4.4.3/../../../../arm-eabi/lib/thumb/libg.a(lib_a-vfiprintf.o)
                              /opt/devkitpro/devkitARM/lib/gcc/arm-eabi/4.4.3/../../../../arm-eabi/lib/thumb/libg.a(lib_a-iprintf.o) (_vfiprintf_r)
/opt/devkitpro/devkitARM/lib/gcc/arm-eabi/4.4.3/../../../../arm-eabi/lib/thumb/libg.a(lib_a-wcrtomb.o)
                              /opt/devkitpro/libnds/lib/libfat.a(directory.o) (wcrtomb)
/opt/devkitpro/devkitARM/lib/gcc/arm-eabi/4.4.3/../../../../arm-eabi/lib/thumb/libg.a(lib_a-wcsrtombs.o)
                              /opt/devkitpro/devkitARM/lib/gcc/arm-eabi/4.4.3/../../../../arm-eabi/lib/thumb/libg.a(lib_a-vfiprintf.o) (_wcsrtombs_r)
/opt/devkitpro/devkitARM/lib/gcc/arm-eabi/4.4.3/../../../../arm-eabi/lib/thumb/libg.a(lib_a-wctob.o)
                              /opt/devkitpro/libnds/lib/libfat.a(directory.o) (wctob)
/opt/devkitpro/devkitARM/lib/gcc/arm-eabi/4.4.3/../../../../arm-eabi/lib/thumb/libg.a(lib_a-wctomb_r.o)
                              /opt/devkitpro/devkitARM/lib/gcc/arm-eabi/4.4.3/../../../../arm-eabi/lib/thumb/libg.a(lib_a-locale.o) (__ascii_wctomb)
/opt/devkitpro/devkitARM/lib/gcc/arm-eabi/4.4.3/../../../../arm-eabi/lib/thumb/libg.a(lib_a-wsetup.o)
                              /opt/devkitpro/devkitARM/lib/gcc/arm-eabi/4.4.3/../../../../arm-eabi/lib/thumb/libg.a(lib_a-vfiprintf.o) (__swsetup_r)
/opt/devkitpro/devkitARM/lib/gcc/arm-eabi/4.4.3/../../../../arm-eabi/lib/thumb/libg.a(lib_a-ctype_.o)
                              /opt/devkitpro/devkitARM/lib/gcc/arm-eabi/4.4.3/../../../../arm-eabi/lib/thumb/libg.a(lib_a-locale.o) (__set_ctype)
/opt/devkitpro/devkitARM/lib/gcc/arm-eabi/4.4.3/../../../../arm-eabi/lib/thumb/libg.a(lib_a-div.o)
                              /opt/devkitpro/devkitARM/lib/gcc/arm-eabi/4.4.3/../../../../arm-eabi/lib/thumb/libg.a(lib_a-mktime.o) (div)
/opt/devkitpro/devkitARM/lib/gcc/arm-eabi/4.4.3/../../../../arm-eabi/lib/thumb/libg.a(lib_a-fflush.o)
                              /opt/devkitpro/devkitARM/lib/gcc/arm-eabi/4.4.3/../../../../arm-eabi/lib/thumb/libg.a(lib_a-setvbuf.o) (_fflush_r)
/opt/devkitpro/devkitARM/lib/gcc/arm-eabi/4.4.3/../../../../arm-eabi/lib/thumb/libg.a(lib_a-findfp.o)
                              /opt/devkitpro/devkitARM/lib/gcc/arm-eabi/4.4.3/../../../../arm-eabi/lib/thumb/libg.a(lib_a-svfiscanf.o) (__sfp_lock_acquire)
/opt/devkitpro/devkitARM/lib/gcc/arm-eabi/4.4.3/../../../../arm-eabi/lib/thumb/libg.a(lib_a-fputwc.o)
                              /opt/devkitpro/devkitARM/lib/gcc/arm-eabi/4.4.3/../../../../arm-eabi/lib/thumb/libg.a(lib_a-vfiprintf.o) (_fputwc_r)
/opt/devkitpro/devkitARM/lib/gcc/arm-eabi/4.4.3/../../../../arm-eabi/lib/thumb/libg.a(lib_a-freer.o)
                              /opt/devkitpro/devkitARM/lib/gcc/arm-eabi/4.4.3/../../../../arm-eabi/lib/thumb/libg.a(lib_a-malloc.o) (_free_r)
/opt/devkitpro/devkitARM/lib/gcc/arm-eabi/4.4.3/../../../../arm-eabi/lib/thumb/libg.a(lib_a-fvwrite.o)
                              /opt/devkitpro/devkitARM/lib/gcc/arm-eabi/4.4.3/../../../../arm-eabi/lib/thumb/libg.a(lib_a-puts.o) (__sfvwrite_r)
/opt/devkitpro/devkitARM/lib/gcc/arm-eabi/4.4.3/../../../../arm-eabi/lib/thumb/libg.a(lib_a-fwalk.o)
                              /opt/devkitpro/devkitARM/lib/gcc/arm-eabi/4.4.3/../../../../arm-eabi/lib/thumb/libg.a(lib_a-fflush.o) (_fwalk_reent)
/opt/devkitpro/devkitARM/lib/gcc/arm-eabi/4.4.3/../../../../arm-eabi/lib/thumb/libg.a(lib_a-getenv_r.o)
                              /opt/devkitpro/devkitARM/lib/gcc/arm-eabi/4.4.3/../../../../arm-eabi/lib/thumb/libg.a(lib_a-locale.o) (_getenv_r)
/opt/devkitpro/devkitARM/lib/gcc/arm-eabi/4.4.3/../../../../arm-eabi/lib/thumb/libg.a(lib_a-gettzinfo.o)
                              /opt/devkitpro/devkitARM/lib/gcc/arm-eabi/4.4.3/../../../../arm-eabi/lib/thumb/libg.a(lib_a-mktime.o) (__gettzinfo)
/opt/devkitpro/devkitARM/lib/gcc/arm-eabi/4.4.3/../../../../arm-eabi/lib/thumb/libg.a(lib_a-iswspace.o)
                              /opt/devkitpro/devkitARM/lib/gcc/arm-eabi/4.4.3/../../../../arm-eabi/lib/thumb/libg.a(lib_a-svfiscanf.o) (iswspace)
/opt/devkitpro/devkitARM/lib/gcc/arm-eabi/4.4.3/../../../../arm-eabi/lib/thumb/libg.a(lib_a-jp2uc.o)
                              /opt/devkitpro/devkitARM/lib/gcc/arm-eabi/4.4.3/../../../../arm-eabi/lib/thumb/libg.a(lib_a-towlower.o) (_jp2uc)
/opt/devkitpro/devkitARM/lib/gcc/arm-eabi/4.4.3/../../../../arm-eabi/lib/thumb/libg.a(lib_a-makebuf.o)
                              /opt/devkitpro/devkitARM/lib/gcc/arm-eabi/4.4.3/../../../../arm-eabi/lib/thumb/libg.a(lib_a-wsetup.o) (__smakebuf_r)
/opt/devkitpro/devkitARM/lib/gcc/arm-eabi/4.4.3/../../../../arm-eabi/lib/thumb/libg.a(lib_a-mbsnrtowcs.o)
                              /opt/devkitpro/devkitARM/lib/gcc/arm-eabi/4.4.3/../../../../arm-eabi/lib/thumb/libg.a(lib_a-mbsrtowcs.o) (_mbsnrtowcs_r)
/opt/devkitpro/devkitARM/lib/gcc/arm-eabi/4.4.3/../../../../arm-eabi/lib/thumb/libg.a(lib_a-memchr.o)
                              /opt/devkitpro/devkitARM/lib/gcc/arm-eabi/4.4.3/../../../../arm-eabi/lib/thumb/libg.a(lib_a-vfiprintf.o) (memchr)
/opt/devkitpro/devkitARM/lib/gcc/arm-eabi/4.4.3/../../../../arm-eabi/lib/thumb/libg.a(lib_a-reallocr.o)
                              /opt/devkitpro/devkitARM/lib/gcc/arm-eabi/4.4.3/../../../../arm-eabi/lib/thumb/libg.a(lib_a-ungetc.o) (_realloc_r)
/opt/devkitpro/devkitARM/lib/gcc/arm-eabi/4.4.3/../../../../arm-eabi/lib/thumb/libg.a(lib_a-sccl.o)
                              /opt/devkitpro/devkitARM/lib/gcc/arm-eabi/4.4.3/../../../../arm-eabi/lib/thumb/libg.a(lib_a-svfiscanf.o) (__sccl)
/opt/devkitpro/devkitARM/lib/gcc/arm-eabi/4.4.3/../../../../arm-eabi/lib/thumb/libg.a(lib_a-strtoul.o)
                              /opt/devkitpro/devkitARM/lib/gcc/arm-eabi/4.4.3/../../../../arm-eabi/lib/thumb/libg.a(lib_a-svfiscanf.o) (_strtoul_r)
/opt/devkitpro/devkitARM/lib/gcc/arm-eabi/4.4.3/../../../../arm-eabi/lib/thumb/libg.a(lib_a-wbuf.o)
                              /opt/devkitpro/devkitARM/lib/gcc/arm-eabi/4.4.3/../../../../arm-eabi/lib/thumb/libg.a(lib_a-fputwc.o) (__swbuf_r)
/opt/devkitpro/devkitARM/lib/gcc/arm-eabi/4.4.3/../../../../arm-eabi/lib/thumb/libg.a(lib_a-wcsnrtombs.o)
                              /opt/devkitpro/devkitARM/lib/gcc/arm-eabi/4.4.3/../../../../arm-eabi/lib/thumb/libg.a(lib_a-wcsrtombs.o) (_wcsnrtombs_r)
/opt/devkitpro/devkitARM/lib/gcc/arm-eabi/4.4.3/../../../../arm-eabi/lib/thumb/libg.a(lib_a-environ.o)
                              /opt/devkitpro/devkitARM/lib/gcc/arm-eabi/4.4.3/../../../../arm-eabi/lib/thumb/libg.a(lib_a-getenv_r.o) (environ)
/opt/devkitpro/devkitARM/lib/gcc/arm-eabi/4.4.3/../../../../arm-eabi/lib/thumb/libg.a(lib_a-envlock.o)
                              /opt/devkitpro/devkitARM/lib/gcc/arm-eabi/4.4.3/../../../../arm-eabi/lib/thumb/libg.a(lib_a-getenv_r.o) (__env_lock)
/opt/devkitpro/devkitARM/lib/gcc/arm-eabi/4.4.3/../../../../arm-eabi/lib/thumb/libg.a(lib_a-fclose.o)
                              /opt/devkitpro/devkitARM/lib/gcc/arm-eabi/4.4.3/../../../../arm-eabi/lib/thumb/libg.a(lib_a-findfp.o) (fclose)
/opt/devkitpro/devkitARM/lib/gcc/arm-eabi/4.4.3/../../../../arm-eabi/lib/thumb/libsysbase.a(iosupport.o)
                              /opt/devkitpro/libnds/lib/libfat.a(libfat.o) (AddDevice)
/opt/devkitpro/devkitARM/lib/gcc/arm-eabi/4.4.3/../../../../arm-eabi/lib/thumb/libsysbase.a(close.o)
                              /opt/devkitpro/devkitARM/lib/gcc/arm-eabi/4.4.3/../../../../arm-eabi/lib/thumb/libg.a(lib_a-stdio.o) (_close_r)
/opt/devkitpro/devkitARM/lib/gcc/arm-eabi/4.4.3/../../../../arm-eabi/lib/thumb/libsysbase.a(fstat.o)
                              /opt/devkitpro/devkitARM/lib/gcc/arm-eabi/4.4.3/../../../../arm-eabi/lib/thumb/libg.a(lib_a-makebuf.o) (_fstat_r)
/opt/devkitpro/devkitARM/lib/gcc/arm-eabi/4.4.3/../../../../arm-eabi/lib/thumb/libsysbase.a(isatty.o)
                              /opt/devkitpro/devkitARM/lib/gcc/arm-eabi/4.4.3/../../../../arm-eabi/lib/thumb/libg.a(lib_a-makebuf.o) (_isatty_r)
/opt/devkitpro/devkitARM/lib/gcc/arm-eabi/4.4.3/../../../../arm-eabi/lib/thumb/libsysbase.a(lseek.o)
                              /opt/devkitpro/devkitARM/lib/gcc/arm-eabi/4.4.3/../../../../arm-eabi/lib/thumb/libg.a(lib_a-stdio.o) (_lseek_r)
/opt/devkitpro/devkitARM/lib/gcc/arm-eabi/4.4.3/../../../../arm-eabi/lib/thumb/libsysbase.a(open.o)
                              /opt/devkitpro/devkitARM/lib/gcc/arm-eabi/4.4.3/../../../../arm-eabi/lib/thumb/libg.a(lib_a-sysopen.o) (_open_r)
/opt/devkitpro/devkitARM/lib/gcc/arm-eabi/4.4.3/../../../../arm-eabi/lib/thumb/libsysbase.a(read.o)
                              /opt/devkitpro/devkitARM/lib/gcc/arm-eabi/4.4.3/../../../../arm-eabi/lib/thumb/libg.a(lib_a-stdio.o) (_read_r)
/opt/devkitpro/devkitARM/lib/gcc/arm-eabi/4.4.3/../../../../arm-eabi/lib/thumb/libsysbase.a(sbrk.o)
                              /opt/devkitpro/devkitARM/lib/gcc/arm-eabi/4.4.3/../../../../arm-eabi/lib/thumb/libg.a(lib_a-mallocr.o) (_sbrk_r)
/opt/devkitpro/devkitARM/lib/gcc/arm-eabi/4.4.3/../../../../arm-eabi/lib/thumb/libsysbase.a(stat.o)
                              /opt/devkitpro/devkitARM/lib/gcc/arm-eabi/4.4.3/../../../../arm-eabi/lib/thumb/libg.a(lib_a-sysstat.o) (_stat_r)
/opt/devkitpro/devkitARM/lib/gcc/arm-eabi/4.4.3/../../../../arm-eabi/lib/thumb/libsysbase.a(times.o)
                              /opt/devkitpro/devkitARM/lib/gcc/arm-eabi/4.4.3/../../../../arm-eabi/lib/thumb/libg.a(lib_a-time.o) (_gettimeofday_r)
/opt/devkitpro/devkitARM/lib/gcc/arm-eabi/4.4.3/../../../../arm-eabi/lib/thumb/libsysbase.a(write.o)
                              /opt/devkitpro/devkitARM/lib/gcc/arm-eabi/4.4.3/../../../../arm-eabi/lib/thumb/libg.a(lib_a-stdio.o) (_write_r)
/opt/devkitpro/devkitARM/lib/gcc/arm-eabi/4.4.3/../../../../arm-eabi/lib/thumb/libsysbase.a(malloc_vars.o)
                              /opt/devkitpro/devkitARM/lib/gcc/arm-eabi/4.4.3/../../../../arm-eabi/lib/thumb/ds_arm9_crt0.o (fake_heap_end)
/opt/devkitpro/devkitARM/lib/gcc/arm-eabi/4.4.3/../../../../arm-eabi/lib/thumb/libsysbase.a(chdir.o)
                              nds_loader_arm9.o (getcwd)
/opt/devkitpro/devkitARM/lib/gcc/arm-eabi/4.4.3/../../../../arm-eabi/lib/thumb/libsysbase.a(build_argv.o)
                              /opt/devkitpro/devkitARM/lib/gcc/arm-eabi/4.4.3/../../../../arm-eabi/lib/thumb/ds_arm9_crt0.o (build_argv)
/opt/devkitpro/devkitARM/lib/gcc/arm-eabi/4.4.3/../../../../arm-eabi/lib/thumb/libsysbase.a(syscall_support.o)
                              /opt/devkitpro/libnds/lib/libnds9.a(initSystem.o) (__syscalls)
/opt/devkitpro/devkitARM/lib/gcc/arm-eabi/4.4.3/../../../../arm-eabi/lib/thumb/libsysbase.a(handle_manager.o)
                              /opt/devkitpro/devkitARM/lib/gcc/arm-eabi/4.4.3/../../../../arm-eabi/lib/thumb/libsysbase.a(close.o) (__get_handle)
/opt/devkitpro/devkitARM/lib/gcc/arm-eabi/4.4.3/../../../../arm-eabi/lib/thumb/libg.a(lib_a-errno.o)
                              /opt/devkitpro/devkitARM/lib/gcc/arm-eabi/4.4.3/../../../../arm-eabi/lib/thumb/libsysbase.a(times.o) (__errno)

Allocating common symbols
Common symbol       size              file

currentCopy         0x5c              /opt/devkitpro/libnds/lib/libnds9.a(console.o)
fifo_datamsg_data   0x40              /opt/devkitpro/libnds/lib/libnds9.a(fifosystem.o)
bgState             0x140             /opt/devkitpro/libnds/lib/libnds9.a(background.o)
fifo_buffer         0x800             /opt/devkitpro/libnds/lib/libnds9.a(fifosystem.o)
bgIsTextLut         0x8               /opt/devkitpro/libnds/lib/libnds9.a(background.o)
fifo_value32_func   0x40              /opt/devkitpro/libnds/lib/libnds9.a(fifosystem.o)
fifo_address_func   0x40              /opt/devkitpro/libnds/lib/libnds9.a(fifosystem.o)
fifo_value32_data   0x40              /opt/devkitpro/libnds/lib/libnds9.a(fifosystem.o)
fifo_value32_queue  0x40              /opt/devkitpro/libnds/lib/libnds9.a(fifosystem.o)
fifo_data_queue     0x40              /opt/devkitpro/libnds/lib/libnds9.a(fifosystem.o)
punixTime           0x4               /opt/devkitpro/devkitARM/lib/gcc/arm-eabi/4.4.3/../../../../arm-eabi/lib/thumb/libsysbase.a(times.o)
fifo_address_data   0x40              /opt/devkitpro/libnds/lib/libnds9.a(fifosystem.o)
fifo_datamsg_func   0x40              /opt/devkitpro/libnds/lib/libnds9.a(fifosystem.o)
fifo_address_queue  0x40              /opt/devkitpro/libnds/lib/libnds9.a(fifosystem.o)

Memory Configuration

Name             Origin             Length             Attributes
rom              0x08000000         0x02000000
ewram            0x02000000         0x003ff000
dtcm             0x0b000000         0x00004000
vectors          0x01000000         0x00000100
itcm             0x01000100         0x00007f00
*default*        0x00000000         0xffffffff

Linker script and memory map

                0x01000000                __vectors_start = 0x1000000
                0x01000100                __itcm_start = 0x1000100
                0x023ff000                __ewram_end = 0x23ff000
                0x023ff000                __eheap_end = 0x23ff000
                0x0b000000                __dtcm_start = 0xb000000
                0x0b004000                __dtcm_top = 0xb004000
                0x0b003ff8                __irq_flags = (__dtcm_top - 0x8)
                0x0b003ffc                __irq_vector = (__dtcm_top - 0x4)
                0x0b003f00                __sp_svc = (__dtcm_top - 0x100)
                0x0b003e00                __sp_irq = (__sp_svc - 0x100)
                0x0b003d00                __sp_usr = (__sp_irq - 0x100)

.init           0x02000000      0x23c
                0x02000000                __text_start = .
 *(.init)
 .init          0x02000000      0x230 /opt/devkitpro/devkitARM/lib/gcc/arm-eabi/4.4.3/../../../../arm-eabi/lib/thumb/ds_arm9_crt0.o
                0x02000000                _start
 .init          0x02000230        0x4 /opt/devkitpro/devkitARM/lib/gcc/arm-eabi/4.4.3/thumb/crti.o
                0x02000230                _init
 .init          0x02000234        0x8 /opt/devkitpro/devkitARM/lib/gcc/arm-eabi/4.4.3/thumb/crtn.o
                0x0200023c                . = ALIGN (0x4)

.plt
 *(.plt)

.text           0x02000240    0x15da8
 *(EXCLUDE_FILE(*.itcm*) .text)
 .text          0x02000240        0x0 /opt/devkitpro/devkitARM/lib/gcc/arm-eabi/4.4.3/../../../../arm-eabi/lib/thumb/ds_arm9_crt0.o
 .text          0x02000240        0x0 /opt/devkitpro/devkitARM/lib/gcc/arm-eabi/4.4.3/thumb/crti.o
 .text          0x02000240       0x6c /opt/devkitpro/devkitARM/lib/gcc/arm-eabi/4.4.3/thumb/crtbegin.o
 .text          0x020002ac        0x0 load.bin.o
 .text          0x020002ac       0x4c bootstrap.o
                0x020002ac                main
 .text          0x020002f8      0x3a4 nds_loader_arm9.o
                0x020002f8                runNds
                0x02000618                runNdsFile
 .text          0x0200069c      0x2fc /opt/devkitpro/libnds/lib/libfat.a(libfat.o)
                0x0200069c                fatGetVolumeLabel
                0x02000768                fatUnmount
                0x020007a0                fatMount
                0x02000828                fatInit
                0x02000978                fatInitDefault
                0x02000984                fatMountSimple
 .text          0x02000998      0x4c4 /opt/devkitpro/libnds/lib/libfat.a(partition.o)
                0x02000998                _FAT_partition_getPartitionFromPath
                0x020009a8                _FAT_partition_destructor
                0x020009cc                FindFirstValidPartition
                0x02000b88                _FAT_partition_constructor
 .text          0x02000e5c      0x520 /opt/devkitpro/libnds/lib/libfat.a(cache.o)
                0x02000f64                _FAT_cache_flush
                0x02000fb4                _FAT_cache_invalidate
                0x02000fe0                _FAT_cache_writeSectors
                0x020010d0                _FAT_cache_writePartialSector
                0x0200111c                _FAT_cache_writeLittleEndianValue
                0x02001164                _FAT_cache_readPartialSector
                0x020011a0                _FAT_cache_readLittleEndianValue
                0x020011f8                _FAT_cache_readSectors
                0x02001254                _FAT_cache_eraseWritePartialSector
                0x020012b0                _FAT_cache_destructor
                0x020012e4                _FAT_cache_constructor
 .text          0x0200137c     0x1394 /opt/devkitpro/libnds/lib/libfat.a(directory.o)
                0x020013ec                _FAT_directory_entryGetCluster
                0x02001414                _FAT_directory_entryStat
                0x020014d0                _FAT_directory_getRootEntry
                0x02001640                _FAT_directory_removeEntry
                0x02001714                _FAT_directory_getVolumeLabel
                0x0200187c                _FAT_directory_entryFromPosition
                0x020019c0                _FAT_directory_getNextEntry
                0x02001be0                _FAT_directory_getFirstEntry
                0x02001c98                _FAT_directory_addEntry
                0x020024fc                _FAT_directory_entryFromPath
                0x020026d4                _FAT_directory_chdir
 .text          0x02002710        0x0 /opt/devkitpro/libnds/lib/libfat.a(disc.o)
 .text          0x02002710      0x7b0 /opt/devkitpro/libnds/lib/libfat.a(fatdir.o)
                0x02002710                _FAT_link_r
                0x0200271c                _FAT_dirclose_r
                0x0200272c                _FAT_dirnext_r
                0x02002790                _FAT_dirreset_r
                0x020027c4                _FAT_stat_r
                0x02002844                _FAT_diropen_r
                0x020028ec                _FAT_statvfs_r
                0x02002948                _FAT_mkdir_r
                0x02002b8c                _FAT_rename_r
                0x02002d08                _FAT_chdir_r
                0x02002d64                _FAT_unlink_r
 .text          0x02002ec0     0x1110 /opt/devkitpro/libnds/lib/libfat.a(fatfile.o)
                0x0200312c                _FAT_ftruncate_r
                0x02003268                _FAT_seek_r
                0x020033a4                _FAT_fstat_r
                0x02003420                _FAT_write_r
                0x02003870                _FAT_read_r
                0x02003b74                _FAT_syncToDisc
                0x02003c58                _FAT_fsync_r
                0x02003c80                _FAT_close_r
                0x02003cdc                _FAT_open_r
 .text          0x02003fd0      0x420 /opt/devkitpro/libnds/lib/libfat.a(file_allocation_table.o)
                0x02003fd0                _FAT_fat_nextCluster
                0x020040b4                _FAT_fat_freeClusterCount
                0x020040e0                _FAT_fat_lastCluster
                0x02004228                _FAT_fat_clearLinks
                0x02004280                _FAT_fat_trimChain
                0x020042f0                _FAT_fat_linkFreeCluster
                0x02004380                _FAT_fat_linkFreeClusterCleared
 .text          0x020043f0       0xc8 /opt/devkitpro/libnds/lib/libfat.a(filetime.o)
                0x020043f0                _FAT_filetime_to_time_t
                0x02004428                _FAT_filetime_getDateFromRTC
                0x02004470                _FAT_filetime_getTimeFromRTC
 .text          0x020044b8      0xa68 /opt/devkitpro/libnds/lib/libnds9.a(console.o)
                0x020044b8                consoleGetDefault
                0x020044c0                consoleSelect
                0x02004574                consolePrintChar
                0x0200472c                consoleLoadFont
                0x020049c4                consoleSetFont
                0x020049e4                consoleSetWindow
                0x02004a08                consoleClear
                0x02004a18                consoleDebugInit
                0x02004a64                consoleInit
                0x02004bdc                consoleDemoInit
                0x02004c1c                con_write
                0x02004ef0                nocash_write
 .text          0x02004f20      0x290 /opt/devkitpro/libnds/lib/libnds9.a(dldi.o)
                0x02004f20                dldiGetInternal
                0x02004f58                dldiIsValid
                0x02004f88                dldiFree
                0x02004f94                dldiFixDriverAddresses
                0x020050b8                dldiLoadFromFile
 .text          0x020051b0      0x114 /opt/devkitpro/libnds/lib/libnds9.a(initSystem.o)
                0x020051b0                initSystem
 .text          0x020052c4      0xd24 /opt/devkitpro/libnds/lib/libnds9.a(fifosystem.o)
                0x02005454                fifoSendAddress
                0x0200548c                fifoSendValue32
                0x020054d4                fifoGetAddress
                0x02005544                fifoSetAddressHandler
                0x020055b8                fifoGetValue32
                0x02005628                fifoSetValue32Handler
                0x0200569c                fifoCheckAddress
                0x020056c0                fifoCheckDatamsg
                0x020056e4                fifoCheckValue32
                0x020057ac                fifoInit
                0x0200596c                fifoGetDatamsg
                0x02005ed4                fifoSetDatamsgHandler
                0x02005f78                fifoSendDatamsg
 .text          0x02005fe8      0x1cc /opt/devkitpro/libnds/lib/libnds9.a(interrupts.o)
                0x02005fe8                irqDummy
                0x02005fec                irqSet
                0x02006050                irqInit
                0x0200609c                irqInitHandler
                0x020060cc                irqEnable
                0x0200612c                irqDisable
                0x0200618c                irqClear
 .text          0x020061b4       0x40 /opt/devkitpro/libnds/lib/libnds9.a(libnds_exit.o)
                0x020061b4                systemErrorExit
                0x020061b8                __libnds_exit
 .text          0x020061f4       0x40 /opt/devkitpro/libnds/lib/libnds9.a(reset.o)
                0x020061f4                resetARM7
 *fill*         0x02006234        0xc ff
 .text          0x02006240     0x8000 /opt/devkitpro/libnds/lib/libnds9.a(dldi_stub.o)
                0x02006240                _io_dldi_stub
 .text          0x0200e240      0x1b4 /opt/devkitpro/libnds/lib/libnds9.a(mpu_setup.o)
                0x0200e240                __libnds_mpu_setup
                0x0200e380                memCached
                0x0200e398                memUncached
 *fill*         0x0200e3f4        0xc ff
 .text          0x0200e400       0x70 /opt/devkitpro/libnds/lib/libnds9.a(biosCalls.o)
                0x0200e400                swiDelay
                0x0200e404                swiIntrWait
                0x0200e408                swiWaitForVBlank
                0x0200e40c                swiSleep
                0x0200e410                swiChangeSoundBias
                0x0200e414                swiDivide
                0x0200e418                swiRemainder
                0x0200e41e                swiDivMod
                0x0200e42a                swiCopy
                0x0200e42e                swiFastCopy
                0x0200e432                swiSqrt
                0x0200e436                swiCRC16
                0x0200e43a                swiIsDebugger
                0x0200e43e                swiUnpackBits
                0x0200e442                swiDecompressLZSSWram
                0x0200e446                swiDecompressLZSSVram
                0x0200e44a                swiDecompressHuffman
                0x0200e44e                swiDecompressRLEWram
                0x0200e452                swiDecompressRLEVram
                0x0200e456                swiWaitForIRQ
                0x0200e45a                swiDecodeDelta8
                0x0200e45e                swiDecodeDelta16
                0x0200e462                swiSetHaltCR
 .text          0x0200e470       0x98 /opt/devkitpro/libnds/lib/libnds9.a(debugprint.o)
                0x0200e470                nocashMessage
 .text          0x0200e508        0x0 /opt/devkitpro/libnds/lib/libnds9.a(interruptDispatcher.o)
 *fill*         0x0200e508        0x8 ff
 .text          0x0200e510       0x30 /opt/devkitpro/libnds/lib/libnds9.a(swiSoftReset.o)
                0x0200e510                swiSoftReset
 .text          0x0200e540        0x0 /opt/devkitpro/libnds/lib/libnds9.a(default_font.bin.o)
 .text          0x0200e540      0x358 /opt/devkitpro/libnds/lib/libnds9.a(background.o)
                0x0200e540                bgIsText
                0x0200e54c                checkIfText
                0x0200e59c                bgUpdate
                0x0200e6b8                bgInitSub_call
                0x0200e7c8                bgInit_call
 .text          0x0200e898       0xdc /opt/devkitpro/libnds/lib/libnds9.a(system.o)
                0x0200e898                ledBlink
                0x0200e8ac                powerOff
                0x0200e8d8                powerOn
                0x0200e908                systemSleep
                0x0200e920                powerValueHandler
                0x0200e930                systemMsgHandler
 .text          0x0200e974      0x284 /opt/devkitpro/libnds/lib/libnds9.a(trig.o)
                0x0200e974                sinLutLookup
                0x0200e9b0                sinLerp
                0x0200ea3c                cosLerp
                0x0200ea54                tanLutLookup
                0x0200ea8c                tanLerp
                0x0200eb2c                arcSinComp
                0x0200eb5c                asinLerp
                0x0200ebe0                acosLerp
 .text          0x0200ebf8       0x8c /opt/devkitpro/devkitARM/lib/gcc/arm-eabi/4.4.3/thumb/libgcc.a(_udivsi3.o)
                0x0200ebf8                __udivsi3
                0x0200ebf8                __aeabi_uidiv
                0x0200ec74                __aeabi_uidivmod
 .text          0x0200ec84       0xa4 /opt/devkitpro/devkitARM/lib/gcc/arm-eabi/4.4.3/thumb/libgcc.a(_divsi3.o)
                0x0200ec84                __aeabi_idiv
                0x0200ec84                __divsi3
                0x0200ed18                __aeabi_idivmod
 .text          0x0200ed28        0x4 /opt/devkitpro/devkitARM/lib/gcc/arm-eabi/4.4.3/thumb/libgcc.a(_dvmd_tls.o)
                0x0200ed28                __aeabi_ldiv0
                0x0200ed28                __div0
                0x0200ed28                __aeabi_idiv0
 .text          0x0200ed2c       0x60 /opt/devkitpro/devkitARM/lib/gcc/arm-eabi/4.4.3/../../../../arm-eabi/lib/thumb/libg.a(lib_a-bsearch.o)
                0x0200ed2c                bsearch
 .text          0x0200ed8c        0x0 /opt/devkitpro/devkitARM/lib/gcc/arm-eabi/4.4.3/../../../../arm-eabi/lib/thumb/libg.a(lib_a-impure.o)
 .text          0x0200ed8c       0x90 /opt/devkitpro/devkitARM/lib/gcc/arm-eabi/4.4.3/../../../../arm-eabi/lib/thumb/libg.a(lib_a-init.o)
                0x0200ed8c                __libc_fini_array
                0x0200edc8                __libc_init_array
 .text          0x0200ee1c       0x40 /opt/devkitpro/devkitARM/lib/gcc/arm-eabi/4.4.3/../../../../arm-eabi/lib/thumb/libg.a(lib_a-iprintf.o)
                0x0200ee1c                _iprintf_r
                0x0200ee38                iprintf
 .text          0x0200ee5c       0x10 /opt/devkitpro/devkitARM/lib/gcc/arm-eabi/4.4.3/../../../../arm-eabi/lib/thumb/libg.a(lib_a-lcltime_r.o)
                0x0200ee5c                localtime_r
 .text          0x0200ee6c      0x7d4 /opt/devkitpro/devkitARM/lib/gcc/arm-eabi/4.4.3/../../../../arm-eabi/lib/thumb/libg.a(lib_a-locale.o)
                0x0200ee6c                __locale_charset
                0x0200ee74                __locale_msgcharset
                0x0200ee80                __locale_cjk_lang
                0x0200ee8c                _localeconv_r
                0x0200ee94                localeconv
                0x0200f3f4                _setlocale_r
                0x0200f624                setlocale
 .text          0x0200f640       0x30 /opt/devkitpro/devkitARM/lib/gcc/arm-eabi/4.4.3/../../../../arm-eabi/lib/thumb/libg.a(lib_a-malloc.o)
                0x0200f640                free
                0x0200f658                malloc
 .text          0x0200f670      0x504 /opt/devkitpro/devkitARM/lib/gcc/arm-eabi/4.4.3/../../../../arm-eabi/lib/thumb/libg.a(lib_a-mallocr.o)
                0x0200f670                _malloc_r
 .text          0x0200fb74      0x110 /opt/devkitpro/devkitARM/lib/gcc/arm-eabi/4.4.3/../../../../arm-eabi/lib/thumb/libg.a(lib_a-mbrtowc.o)
                0x0200fb74                mbrtowc
                0x0200fc00                _mbrtowc_r
 .text          0x0200fc84       0x48 /opt/devkitpro/devkitARM/lib/gcc/arm-eabi/4.4.3/../../../../arm-eabi/lib/thumb/libg.a(lib_a-mbsrtowcs.o)
                0x0200fc84                mbsrtowcs
                0x0200fcb0                _mbsrtowcs_r
 .text          0x0200fccc      0x4d4 /opt/devkitpro/devkitARM/lib/gcc/arm-eabi/4.4.3/../../../../arm-eabi/lib/thumb/libg.a(lib_a-mbtowc_r.o)
                0x0200fccc                __ascii_mbtowc
                0x0200fcfc                __utf8_mbtowc
                0x0200ff00                __sjis_mbtowc
                0x0200ff88                __eucjp_mbtowc
                0x02010038                __jis_mbtowc
                0x02010160                _mbtowc_r
 .text          0x020101a0       0x58 /opt/devkitpro/devkitARM/lib/gcc/arm-eabi/4.4.3/../../../../arm-eabi/lib/thumb/libg.a(lib_a-memcmp.o)
                0x020101a0                memcmp
 .text          0x020101f8       0x80 /opt/devkitpro/devkitARM/lib/gcc/arm-eabi/4.4.3/../../../../arm-eabi/lib/thumb/libg.a(lib_a-memcpy.o)
                0x020101f8                memcpy
 .text          0x02010278       0xa0 /opt/devkitpro/devkitARM/lib/gcc/arm-eabi/4.4.3/../../../../arm-eabi/lib/thumb/libg.a(lib_a-memmove.o)
                0x02010278                memmove
 .text          0x02010318       0x94 /opt/devkitpro/devkitARM/lib/gcc/arm-eabi/4.4.3/../../../../arm-eabi/lib/thumb/libg.a(lib_a-memset.o)
                0x02010318                memset
 .text          0x020103ac      0x494 /opt/devkitpro/devkitARM/lib/gcc/arm-eabi/4.4.3/../../../../arm-eabi/lib/thumb/libg.a(lib_a-mktime.o)
                0x020105a8                mktime
 .text          0x02010840      0x4b0 /opt/devkitpro/devkitARM/lib/gcc/arm-eabi/4.4.3/../../../../arm-eabi/lib/thumb/libg.a(lib_a-mktm_r.o)
                0x02010840                __tzcalc_limits
                0x020109c4                _mktm_r
 .text          0x02010cf0        0x8 /opt/devkitpro/devkitARM/lib/gcc/arm-eabi/4.4.3/../../../../arm-eabi/lib/thumb/libg.a(lib_a-mlock.o)
                0x02010cf0                __malloc_lock
                0x02010cf4                __malloc_unlock
 .text          0x02010cf8       0x84 /opt/devkitpro/devkitARM/lib/gcc/arm-eabi/4.4.3/../../../../arm-eabi/lib/thumb/libg.a(lib_a-puts.o)
                0x02010cf8                _puts_r
                0x02010d64                puts
 .text          0x02010d7c      0x10c /opt/devkitpro/devkitARM/lib/gcc/arm-eabi/4.4.3/../../../../arm-eabi/lib/thumb/libg.a(lib_a-setvbuf.o)
                0x02010d7c                setvbuf
 .text          0x02010e88       0xa0 /opt/devkitpro/devkitARM/lib/gcc/arm-eabi/4.4.3/../../../../arm-eabi/lib/thumb/libg.a(lib_a-siscanf.o)
                0x02010e88                _siscanf_r
                0x02010ed8                siscanf
 .text          0x02010f28       0xac /opt/devkitpro/devkitARM/lib/gcc/arm-eabi/4.4.3/../../../../arm-eabi/lib/thumb/libg.a(lib_a-stdio.o)
                0x02010f28                __seofread
                0x02010f2c                __sclose
                0x02010f3c                __sseek
                0x02010f6c                __swrite
                0x02010fa8                __sread
 .text          0x02010fd4       0x54 /opt/devkitpro/devkitARM/lib/gcc/arm-eabi/4.4.3/../../../../arm-eabi/lib/thumb/libg.a(lib_a-strcasecmp.o)
                0x02010fd4                strcasecmp
 .text          0x02011028       0x50 /opt/devkitpro/devkitARM/lib/gcc/arm-eabi/4.4.3/../../../../arm-eabi/lib/thumb/libg.a(lib_a-strcat.o)
                0x02011028                strcat
 .text          0x02011078       0xd4 /opt/devkitpro/devkitARM/lib/gcc/arm-eabi/4.4.3/../../../../arm-eabi/lib/thumb/libg.a(lib_a-strchr.o)
                0x02011078                strchr
 .text          0x0201114c       0x14 /opt/devkitpro/devkitARM/lib/gcc/arm-eabi/4.4.3/../../../../arm-eabi/lib/thumb/libg.a(lib_a-strcmp.o)
                0x0201114c                strcmp
 .text          0x02011160       0x10 /opt/devkitpro/devkitARM/lib/gcc/arm-eabi/4.4.3/../../../../arm-eabi/lib/thumb/libg.a(lib_a-strcpy.o)
                0x02011160                strcpy
 .text          0x02011170       0x44 /opt/devkitpro/devkitARM/lib/gcc/arm-eabi/4.4.3/../../../../arm-eabi/lib/thumb/libg.a(lib_a-strlcpy.o)
                0x02011170                strlcpy
 .text          0x020111b4       0x10 /opt/devkitpro/devkitARM/lib/gcc/arm-eabi/4.4.3/../../../../arm-eabi/lib/thumb/libg.a(lib_a-strlen.o)
                0x020111b4                strlen
 .text          0x020111c4       0x74 /opt/devkitpro/devkitARM/lib/gcc/arm-eabi/4.4.3/../../../../arm-eabi/lib/thumb/libg.a(lib_a-strncasecmp.o)
                0x020111c4                strncasecmp
 .text          0x02011238       0xac /opt/devkitpro/devkitARM/lib/gcc/arm-eabi/4.4.3/../../../../arm-eabi/lib/thumb/libg.a(lib_a-strncmp.o)
                0x02011238                strncmp
 .text          0x020112e4       0x64 /opt/devkitpro/devkitARM/lib/gcc/arm-eabi/4.4.3/../../../../arm-eabi/lib/thumb/libg.a(lib_a-strncpy.o)
                0x020112e4                strncpy
 .text          0x02011348       0x2c /opt/devkitpro/devkitARM/lib/gcc/arm-eabi/4.4.3/../../../../arm-eabi/lib/thumb/libg.a(lib_a-strnlen.o)
                0x02011348                strnlen
 .text          0x02011374       0x44 /opt/devkitpro/devkitARM/lib/gcc/arm-eabi/4.4.3/../../../../arm-eabi/lib/thumb/libg.a(lib_a-strpbrk.o)
                0x02011374                strpbrk
 .text          0x020113b8       0x30 /opt/devkitpro/devkitARM/lib/gcc/arm-eabi/4.4.3/../../../../arm-eabi/lib/thumb/libg.a(lib_a-strrchr.o)
                0x020113b8                strrchr
 .text          0x020113e8      0x188 /opt/devkitpro/devkitARM/lib/gcc/arm-eabi/4.4.3/../../../../arm-eabi/lib/thumb/libg.a(lib_a-strtol.o)
                0x020113e8                _strtol_r
                0x02011550                strtol
 .text          0x02011570      0xafc /opt/devkitpro/devkitARM/lib/gcc/arm-eabi/4.4.3/../../../../arm-eabi/lib/thumb/libg.a(lib_a-svfiscanf.o)
                0x02011570                __ssrefill_r
                0x020115b4                _sfread_r
                0x02011648                _sungetc_r
                0x020116d8                __ssvfiscanf_r
 .text          0x0201206c       0x18 /opt/devkitpro/devkitARM/lib/gcc/arm-eabi/4.4.3/../../../../arm-eabi/lib/thumb/libg.a(lib_a-sysclose.o)
                0x0201206c                close
 .text          0x02012084       0x20 /opt/devkitpro/devkitARM/lib/gcc/arm-eabi/4.4.3/../../../../arm-eabi/lib/thumb/libg.a(lib_a-syslseek.o)
                0x02012084                lseek
 .text          0x020120a4       0x28 /opt/devkitpro/devkitARM/lib/gcc/arm-eabi/4.4.3/../../../../arm-eabi/lib/thumb/libg.a(lib_a-sysopen.o)
                0x020120a4                open
 .text          0x020120cc       0x20 /opt/devkitpro/devkitARM/lib/gcc/arm-eabi/4.4.3/../../../../arm-eabi/lib/thumb/libg.a(lib_a-sysread.o)
                0x020120cc                read
 .text          0x020120ec       0x1c /opt/devkitpro/devkitARM/lib/gcc/arm-eabi/4.4.3/../../../../arm-eabi/lib/thumb/libg.a(lib_a-sysstat.o)
                0x020120ec                stat
 .text          0x02012108       0x34 /opt/devkitpro/devkitARM/lib/gcc/arm-eabi/4.4.3/../../../../arm-eabi/lib/thumb/libg.a(lib_a-time.o)
                0x02012108                time
 .text          0x0201213c      0x42c /opt/devkitpro/devkitARM/lib/gcc/arm-eabi/4.4.3/../../../../arm-eabi/lib/thumb/libg.a(lib_a-towlower.o)
                0x0201213c                towlower
 .text          0x02012568      0x608 /opt/devkitpro/devkitARM/lib/gcc/arm-eabi/4.4.3/../../../../arm-eabi/lib/thumb/libg.a(lib_a-towupper.o)
                0x02012568                towupper
 .text          0x02012b70        0x8 /opt/devkitpro/devkitARM/lib/gcc/arm-eabi/4.4.3/../../../../arm-eabi/lib/thumb/libg.a(lib_a-tzlock.o)
                0x02012b70                __tz_lock
                0x02012b74                __tz_unlock
 .text          0x02012b78        0x0 /opt/devkitpro/devkitARM/lib/gcc/arm-eabi/4.4.3/../../../../arm-eabi/lib/thumb/libg.a(lib_a-tzvars.o)
 .text          0x02012b78      0x1a0 /opt/devkitpro/devkitARM/lib/gcc/arm-eabi/4.4.3/../../../../arm-eabi/lib/thumb/libg.a(lib_a-ungetc.o)
                0x02012b78                __submore
                0x02012bf4                _ungetc_r
                0x02012cfc                ungetc
 .text          0x02012d18      0xdb8 /opt/devkitpro/devkitARM/lib/gcc/arm-eabi/4.4.3/../../../../arm-eabi/lib/thumb/libg.a(lib_a-vfiprintf.o)
                0x02012d18                __sprint_r
                0x02012da8                _vfiprintf_r
                0x02013aac                vfiprintf
 .text          0x02013ad0       0xf0 /opt/devkitpro/devkitARM/lib/gcc/arm-eabi/4.4.3/../../../../arm-eabi/lib/thumb/libg.a(lib_a-wcrtomb.o)
                0x02013ad0                wcrtomb
                0x02013b4c                _wcrtomb_r
 .text          0x02013bc0       0x48 /opt/devkitpro/devkitARM/lib/gcc/arm-eabi/4.4.3/../../../../arm-eabi/lib/thumb/libg.a(lib_a-wcsrtombs.o)
                0x02013bc0                wcsrtombs
                0x02013bec                _wcsrtombs_r
 .text          0x02013c08       0x60 /opt/devkitpro/devkitARM/lib/gcc/arm-eabi/4.4.3/../../../../arm-eabi/lib/thumb/libg.a(lib_a-wctob.o)
                0x02013c08                wctob
 .text          0x02013c68      0x290 /opt/devkitpro/devkitARM/lib/gcc/arm-eabi/4.4.3/../../../../arm-eabi/lib/thumb/libg.a(lib_a-wctomb_r.o)
                0x02013c68                __ascii_wctomb
                0x02013c88                __utf8_wctomb
                0x02013d4c                __sjis_wctomb
                0x02013dac                __eucjp_wctomb
                0x02013e34                __jis_wctomb
                0x02013ebc                _wctomb_r
 .text          0x02013ef8       0xd0 /opt/devkitpro/devkitARM/lib/gcc/arm-eabi/4.4.3/../../../../arm-eabi/lib/thumb/libg.a(lib_a-wsetup.o)
                0x02013ef8                __swsetup_r
 .text          0x02013fc8       0x10 /opt/devkitpro/devkitARM/lib/gcc/arm-eabi/4.4.3/../../../../arm-eabi/lib/thumb/libg.a(lib_a-ctype_.o)
                0x02013fc8                __set_ctype
 .text          0x02013fd8       0x40 /opt/devkitpro/devkitARM/lib/gcc/arm-eabi/4.4.3/../../../../arm-eabi/lib/thumb/libg.a(lib_a-div.o)
                0x02013fd8                div
 .text          0x02014018      0x184 /opt/devkitpro/devkitARM/lib/gcc/arm-eabi/4.4.3/../../../../arm-eabi/lib/thumb/libg.a(lib_a-fflush.o)
                0x02014018                _fflush_r
                0x02014168                fflush
 .text          0x0201419c      0x1e4 /opt/devkitpro/devkitARM/lib/gcc/arm-eabi/4.4.3/../../../../arm-eabi/lib/thumb/libg.a(lib_a-findfp.o)
                0x0201419c                __sfp_lock_acquire
                0x020141a0                __sfp_lock_release
                0x020141a4                __sinit_lock_acquire
                0x020141a8                __sinit_lock_release
                0x020141b4                __fp_unlock_all
                0x020141d0                __fp_lock_all
                0x020141ec                _cleanup_r
                0x02014200                _cleanup
                0x02014260                __sinit
                0x020142bc                __sfmoreglue
                0x020142f0                __sfp
 .text          0x02014380      0x10c /opt/devkitpro/devkitARM/lib/gcc/arm-eabi/4.4.3/../../../../arm-eabi/lib/thumb/libg.a(lib_a-fputwc.o)
                0x02014380                _fputwc_r
                0x02014460                fputwc
 .text          0x0201448c      0x250 /opt/devkitpro/devkitARM/lib/gcc/arm-eabi/4.4.3/../../../../arm-eabi/lib/thumb/libg.a(lib_a-freer.o)
                0x0201448c                _malloc_trim_r
                0x02014530                _free_r
 .text          0x020146dc      0x318 /opt/devkitpro/devkitARM/lib/gcc/arm-eabi/4.4.3/../../../../arm-eabi/lib/thumb/libg.a(lib_a-fvwrite.o)
                0x020146dc                __sfvwrite_r
 .text          0x020149f4       0xc4 /opt/devkitpro/devkitARM/lib/gcc/arm-eabi/4.4.3/../../../../arm-eabi/lib/thumb/libg.a(lib_a-fwalk.o)
                0x020149f4                _fwalk_reent
                0x02014a58                _fwalk
 .text          0x02014ab8       0xa4 /opt/devkitpro/devkitARM/lib/gcc/arm-eabi/4.4.3/../../../../arm-eabi/lib/thumb/libg.a(lib_a-getenv_r.o)
                0x02014ab8                _findenv_r
                0x02014b4c                _getenv_r
 .text          0x02014b5c        0x8 /opt/devkitpro/devkitARM/lib/gcc/arm-eabi/4.4.3/../../../../arm-eabi/lib/thumb/libg.a(lib_a-gettzinfo.o)
                0x02014b5c                __gettzinfo
 .text          0x02014b64       0x60 /opt/devkitpro/devkitARM/lib/gcc/arm-eabi/4.4.3/../../../../arm-eabi/lib/thumb/libg.a(lib_a-iswspace.o)
                0x02014b64                iswspace
 .text          0x02014bc4      0x1f4 /opt/devkitpro/devkitARM/lib/gcc/arm-eabi/4.4.3/../../../../arm-eabi/lib/thumb/libg.a(lib_a-jp2uc.o)
                0x02014d54                _jp2uc
 .text          0x02014db8       0xe8 /opt/devkitpro/devkitARM/lib/gcc/arm-eabi/4.4.3/../../../../arm-eabi/lib/thumb/libg.a(lib_a-makebuf.o)
                0x02014db8                __smakebuf_r
 .text          0x02014ea0       0xfc /opt/devkitpro/devkitARM/lib/gcc/arm-eabi/4.4.3/../../../../arm-eabi/lib/thumb/libg.a(lib_a-mbsnrtowcs.o)
                0x02014ea0                _mbsnrtowcs_r
                0x02014f70                mbsnrtowcs
 .text          0x02014f9c       0x80 /opt/devkitpro/devkitARM/lib/gcc/arm-eabi/4.4.3/../../../../arm-eabi/lib/thumb/libg.a(lib_a-memchr.o)
                0x02014f9c                memchr
 .text          0x0201501c      0x354 /opt/devkitpro/devkitARM/lib/gcc/arm-eabi/4.4.3/../../../../arm-eabi/lib/thumb/libg.a(lib_a-reallocr.o)
                0x0201501c                _realloc_r
 .text          0x02015370       0x78 /opt/devkitpro/devkitARM/lib/gcc/arm-eabi/4.4.3/../../../../arm-eabi/lib/thumb/libg.a(lib_a-sccl.o)
                0x02015370                __sccl
 .text          0x020153e8      0x174 /opt/devkitpro/devkitARM/lib/gcc/arm-eabi/4.4.3/../../../../arm-eabi/lib/thumb/libg.a(lib_a-strtoul.o)
                0x020153e8                _strtoul_r
                0x0201553c                strtoul
 .text          0x0201555c       0xe0 /opt/devkitpro/devkitARM/lib/gcc/arm-eabi/4.4.3/../../../../arm-eabi/lib/thumb/libg.a(lib_a-wbuf.o)
                0x0201555c                __swbuf_r
                0x02015620                __swbuf
 .text          0x0201563c      0x140 /opt/devkitpro/devkitARM/lib/gcc/arm-eabi/4.4.3/../../../../arm-eabi/lib/thumb/libg.a(lib_a-wcsnrtombs.o)
                0x0201563c                _wcsnrtombs_r
                0x0201574c                wcsnrtombs
 .text          0x0201577c        0x0 /opt/devkitpro/devkitARM/lib/gcc/arm-eabi/4.4.3/../../../../arm-eabi/lib/thumb/libg.a(lib_a-environ.o)
 .text          0x0201577c        0x8 /opt/devkitpro/devkitARM/lib/gcc/arm-eabi/4.4.3/../../../../arm-eabi/lib/thumb/libg.a(lib_a-envlock.o)
                0x0201577c                __env_lock
                0x02015780                __env_unlock
 .text          0x02015784       0xc0 /opt/devkitpro/devkitARM/lib/gcc/arm-eabi/4.4.3/../../../../arm-eabi/lib/thumb/libg.a(lib_a-fclose.o)
                0x02015784                _fclose_r
                0x02015828                fclose
 .text          0x02015844      0x144 /opt/devkitpro/devkitARM/lib/gcc/arm-eabi/4.4.3/../../../../arm-eabi/lib/thumb/libsysbase.a(iosupport.o)
                0x02015844                setDefaultDevice
                0x02015858                AddDevice
                0x020158d4                FindDevice
                0x02015944                GetDeviceOpTab
                0x02015964                RemoveDevice
 .text          0x02015988       0x50 /opt/devkitpro/devkitARM/lib/gcc/arm-eabi/4.4.3/../../../../arm-eabi/lib/thumb/libsysbase.a(close.o)
                0x02015988                _close_r
 .text          0x020159d8       0x58 /opt/devkitpro/devkitARM/lib/gcc/arm-eabi/4.4.3/../../../../arm-eabi/lib/thumb/libsysbase.a(fstat.o)
                0x020159d8                _fstat_r
 .text          0x02015a30        0x4 /opt/devkitpro/devkitARM/lib/gcc/arm-eabi/4.4.3/../../../../arm-eabi/lib/thumb/libsysbase.a(isatty.o)
                0x02015a30                _isatty_r
 .text          0x02015a34       0x50 /opt/devkitpro/devkitARM/lib/gcc/arm-eabi/4.4.3/../../../../arm-eabi/lib/thumb/libsysbase.a(lseek.o)
                0x02015a34                _lseek_r
 .text          0x02015a84       0xa0 /opt/devkitpro/devkitARM/lib/gcc/arm-eabi/4.4.3/../../../../arm-eabi/lib/thumb/libsysbase.a(open.o)
                0x02015a84                _open_r
 .text          0x02015b24       0x50 /opt/devkitpro/devkitARM/lib/gcc/arm-eabi/4.4.3/../../../../arm-eabi/lib/thumb/libsysbase.a(read.o)
                0x02015b24                _read_r
 .text          0x02015b74       0x54 /opt/devkitpro/devkitARM/lib/gcc/arm-eabi/4.4.3/../../../../arm-eabi/lib/thumb/libsysbase.a(sbrk.o)
                0x02015b74                _sbrk_r
 .text          0x02015bc8       0x40 /opt/devkitpro/devkitARM/lib/gcc/arm-eabi/4.4.3/../../../../arm-eabi/lib/thumb/libsysbase.a(stat.o)
                0x02015bc8                _stat_r
 .text          0x02015c08       0x48 /opt/devkitpro/devkitARM/lib/gcc/arm-eabi/4.4.3/../../../../arm-eabi/lib/thumb/libsysbase.a(times.o)
                0x02015c08                _times_r
                0x02015c10                _gettimeofday_r
                0x02015c3c                _times
 .text          0x02015c50       0x50 /opt/devkitpro/devkitARM/lib/gcc/arm-eabi/4.4.3/../../../../arm-eabi/lib/thumb/libsysbase.a(write.o)
                0x02015c50                _write_r
 .text          0x02015ca0        0x0 /opt/devkitpro/devkitARM/lib/gcc/arm-eabi/4.4.3/../../../../arm-eabi/lib/thumb/libsysbase.a(malloc_vars.o)
 .text          0x02015ca0      0x260 /opt/devkitpro/devkitARM/lib/gcc/arm-eabi/4.4.3/../../../../arm-eabi/lib/thumb/libsysbase.a(chdir.o)
                0x02015ca0                getcwd
                0x02015cec                _concatenate_path
                0x02015e04                chdir
 .text          0x02015f00       0x54 /opt/devkitpro/devkitARM/lib/gcc/arm-eabi/4.4.3/../../../../arm-eabi/lib/thumb/libsysbase.a(build_argv.o)
                0x02015f00                build_argv
 .text          0x02015f54        0x0 /opt/devkitpro/devkitARM/lib/gcc/arm-eabi/4.4.3/../../../../arm-eabi/lib/thumb/libsysbase.a(syscall_support.o)
 .text          0x02015f54       0x88 /opt/devkitpro/devkitARM/lib/gcc/arm-eabi/4.4.3/../../../../arm-eabi/lib/thumb/libsysbase.a(handle_manager.o)
                0x02015f54                __get_handle
                0x02015f74                __alloc_handle
                0x02015fb0                __release_handle
 .text          0x02015fdc        0xc /opt/devkitpro/devkitARM/lib/gcc/arm-eabi/4.4.3/../../../../arm-eabi/lib/thumb/libg.a(lib_a-errno.o)
                0x02015fdc                __errno
 .text          0x02015fe8        0x0 /opt/devkitpro/devkitARM/lib/gcc/arm-eabi/4.4.3/thumb/crtend.o
 .text          0x02015fe8        0x0 /opt/devkitpro/devkitARM/lib/gcc/arm-eabi/4.4.3/thumb/crtn.o
 *(.text.*)
 *(.stub)
 *(.gnu.warning)
 *(.gnu.linkonce.t*)
 *(.glue_7)
 .glue_7        0x00000000        0x0 linker stubs
 *(.glue_7t)
 .glue_7t       0x00000000        0x0 linker stubs
                0x02015fe8                . = ALIGN (0x4)

.vfp11_veneer   0x00000000        0x0 load address 0x02015fe8
 .vfp11_veneer  0x00000000        0x0 linker stubs

.v4_bx          0x00000000        0x0 load address 0x02015fe8
 .v4_bx         0x00000000        0x0 linker stubs

.fini           0x02015fe8        0xc
 *(.fini)
 .fini          0x02015fe8        0x4 /opt/devkitpro/devkitARM/lib/gcc/arm-eabi/4.4.3/thumb/crti.o
                0x02015fe8                _fini
 .fini          0x02015fec        0x8 /opt/devkitpro/devkitARM/lib/gcc/arm-eabi/4.4.3/thumb/crtn.o
                0x02015ff4                __text_end = .

.rodata         0x02015ff4    0x10198
 *(.rodata)
 .rodata        0x02015ff4     0x9948 load.bin.o
                0x02015ff4                load_bin
                0x0201f938                load_bin_end
                0x0201f938                load_bin_size
 .rodata        0x0201f93c        0xc nds_loader_arm9.o
 .rodata        0x0201f948       0x5c /opt/devkitpro/libnds/lib/libfat.a(libfat.o)
 .rodata        0x0201f9a4        0x4 /opt/devkitpro/libnds/lib/libfat.a(partition.o)
 .rodata        0x0201f9a8       0x54 /opt/devkitpro/libnds/lib/libfat.a(directory.o)
 .rodata        0x0201f9fc       0x10 /opt/devkitpro/libnds/lib/libfat.a(disc.o)
                0x0201f9fc                _FAT_disc_interfaces
 .rodata        0x0201fa0c      0x200 /opt/devkitpro/libnds/lib/libnds9.a(console.o)
 .rodata        0x0201fc0c        0xc /opt/devkitpro/libnds/lib/libnds9.a(dldi.o)
                0x0201fc0c                DLDI_MAGIC_STRING_BACKWARDS
                0x0201fc14                DLDI_MAGIC_NUMBER
 .rodata        0x0201fc18     0x2004 /opt/devkitpro/libnds/lib/libnds9.a(default_font.bin.o)
                0x0201fc18                default_font_bin
                0x02021c18                default_font_bin_end
                0x02021c18                default_font_bin_size
 .rodata        0x02021c1c        0x4 /opt/devkitpro/devkitARM/lib/gcc/arm-eabi/4.4.3/../../../../arm-eabi/lib/thumb/libg.a(lib_a-impure.o)
                0x02021c1c                _global_impure_ptr
 .rodata        0x02021c20      0x128 /opt/devkitpro/devkitARM/lib/gcc/arm-eabi/4.4.3/../../../../arm-eabi/lib/thumb/libg.a(lib_a-locale.o)
 .rodata        0x02021d48       0xa8 /opt/devkitpro/devkitARM/lib/gcc/arm-eabi/4.4.3/../../../../arm-eabi/lib/thumb/libg.a(lib_a-mbtowc_r.o)
 .rodata        0x02021df0       0x60 /opt/devkitpro/devkitARM/lib/gcc/arm-eabi/4.4.3/../../../../arm-eabi/lib/thumb/libg.a(lib_a-mktime.o)
 .rodata        0x02021e50       0x68 /opt/devkitpro/devkitARM/lib/gcc/arm-eabi/4.4.3/../../../../arm-eabi/lib/thumb/libg.a(lib_a-mktm_r.o)
 .rodata        0x02021eb8      0x340 /opt/devkitpro/devkitARM/lib/gcc/arm-eabi/4.4.3/../../../../arm-eabi/lib/thumb/libg.a(lib_a-svfiscanf.o)
 .rodata        0x020221f8      0x310 /opt/devkitpro/devkitARM/lib/gcc/arm-eabi/4.4.3/../../../../arm-eabi/lib/thumb/libg.a(lib_a-towlower.o)
 .rodata        0x02022508      0x2b8 /opt/devkitpro/devkitARM/lib/gcc/arm-eabi/4.4.3/../../../../arm-eabi/lib/thumb/libg.a(lib_a-towupper.o)
 .rodata        0x020227c0      0x184 /opt/devkitpro/devkitARM/lib/gcc/arm-eabi/4.4.3/../../../../arm-eabi/lib/thumb/libg.a(lib_a-vfiprintf.o)
 .rodata        0x02022944      0x104 /opt/devkitpro/devkitARM/lib/gcc/arm-eabi/4.4.3/../../../../arm-eabi/lib/thumb/libg.a(lib_a-ctype_.o)
                0x02022944                _ctype_
 .rodata        0x02022a48     0x34f0 /opt/devkitpro/devkitARM/lib/gcc/arm-eabi/4.4.3/../../../../arm-eabi/lib/thumb/libg.a(lib_a-jp2uc.o)
 .rodata        0x02025f38       0x64 /opt/devkitpro/devkitARM/lib/gcc/arm-eabi/4.4.3/../../../../arm-eabi/lib/thumb/libsysbase.a(iosupport.o)
                0x02025f38                dotab_stdnull
 .rodata        0x02025f9c        0xc /opt/devkitpro/devkitARM/lib/gcc/arm-eabi/4.4.3/../../../../arm-eabi/lib/thumb/libsysbase.a(chdir.o)
                0x02025f9c                DIRECTORY_PARENT
                0x02025fa0                DIRECTORY_SEPARATOR
                0x02025fa4                DIRECTORY_THIS
 *all.rodata*(*)
 *(.roda)
 *(.rodata.*)
 .rodata.str1.4
                0x02025fa8       0x4f bootstrap.o
                                 0x50 (size before relaxing)
 *fill*         0x02025ff7        0x1 ff
 .rodata.str1.4
                0x02025ff8       0x10 /opt/devkitpro/libnds/lib/libfat.a(libfat.o)
 .rodata.str1.4
                0x02026008        0xa /opt/devkitpro/libnds/lib/libfat.a(partition.o)
                                 0x10 (size before relaxing)
 *fill*         0x02026012        0x2 ff
 .rodata.str1.4
                0x02026014        0x2 /opt/devkitpro/libnds/lib/libfat.a(directory.o)
                                  0x8 (size before relaxing)
 .rodata.str1.4
                0x00000000        0x4 /opt/devkitpro/libnds/lib/libfat.a(disc.o)
 *fill*         0x02026016        0x2 ff
 .rodata.str1.4
                0x02026018       0x49 /opt/devkitpro/libnds/lib/libnds9.a(console.o)
                                 0x4c (size before relaxing)
 *fill*         0x02026061        0x3 ff
 .rodata.str1.4
                0x02026064        0x2 /opt/devkitpro/devkitARM/lib/gcc/arm-eabi/4.4.3/../../../../arm-eabi/lib/thumb/libg.a(lib_a-impure.o)
                                  0x4 (size before relaxing)
 *fill*         0x02026066        0x2 ff
 .rodata.str1.4
                0x02026068       0xe4 /opt/devkitpro/devkitARM/lib/gcc/arm-eabi/4.4.3/../../../../arm-eabi/lib/thumb/libg.a(lib_a-locale.o)
                                 0xf0 (size before relaxing)
 .rodata.str1.4
                0x00000000        0x4 /opt/devkitpro/devkitARM/lib/gcc/arm-eabi/4.4.3/../../../../arm-eabi/lib/thumb/libg.a(lib_a-mbrtowc.o)
 .rodata.str1.4
                0x0202614c        0x2 /opt/devkitpro/devkitARM/lib/gcc/arm-eabi/4.4.3/../../../../arm-eabi/lib/thumb/libg.a(lib_a-puts.o)
                                  0x4 (size before relaxing)
 *fill*         0x0202614e        0x2 ff
 .rodata.str1.4
                0x02026150        0x4 /opt/devkitpro/devkitARM/lib/gcc/arm-eabi/4.4.3/../../../../arm-eabi/lib/thumb/libg.a(lib_a-tzvars.o)
 .rodata.str1.4
                0x02026154       0x2f /opt/devkitpro/devkitARM/lib/gcc/arm-eabi/4.4.3/../../../../arm-eabi/lib/thumb/libg.a(lib_a-vfiprintf.o)
                                 0x30 (size before relaxing)
 .rodata.str1.4
                0x00000000       0x14 /opt/devkitpro/devkitARM/lib/gcc/arm-eabi/4.4.3/../../../../arm-eabi/lib/thumb/libg.a(lib_a-jp2uc.o)
 *fill*         0x02026183        0x1 ff
 .rodata.str1.4
                0x02026184        0x8 /opt/devkitpro/devkitARM/lib/gcc/arm-eabi/4.4.3/../../../../arm-eabi/lib/thumb/libsysbase.a(iosupport.o)
 *(.gnu.linkonce.r*)
                0x0202618c                . = ALIGN (0x4)

.ARM.extab
 *(.ARM.extab* .gnu.linkonce.armextab.*)
                0x0202618c                __exidx_start = .

.ARM.exidx
 *(.ARM.exidx* .gnu.linkonce.armexidx.*)
                0x0202618c                __exidx_end = .
                0x0202618c                . = ALIGN (0x4)
                0x0202618c                PROVIDE (__preinit_array_start, .)

.preinit_array
 *(.preinit_array)
                0x0202618c                PROVIDE (__preinit_array_end, .)
                0x0202618c                PROVIDE (__init_array_start, .)

.init_array     0x0202618c        0x4
 *(SORT(.init_array.*))
 *(.init_array)
 .init_array    0x0202618c        0x4 /opt/devkitpro/devkitARM/lib/gcc/arm-eabi/4.4.3/thumb/crtbegin.o
                0x02026190                PROVIDE (__init_array_end, .)
                0x02026190                PROVIDE (__fini_array_start, .)

.fini_array     0x02026190        0x4
 *(.fini_array)
 .fini_array    0x02026190        0x4 /opt/devkitpro/devkitARM/lib/gcc/arm-eabi/4.4.3/thumb/crtbegin.o
 *(SORT(.fini_array.*))
                0x02026194                PROVIDE (__fini_array_end, .)

.ctors          0x02026194        0x0
 *crtbegin.o(.ctors)
 *(EXCLUDE_FILE(*crtend.o) .ctors)
 *(SORT(.ctors.*))
 *(.ctors)
                0x02026194                . = ALIGN (0x4)

.dtors          0x02026194        0x0
 *crtbegin.o(.dtors)
 *(EXCLUDE_FILE(*crtend.o) .dtors)
 *(SORT(.dtors.*))
 *(.dtors)
                0x02026194                . = ALIGN (0x4)

.eh_frame       0x02026194        0x4
 *(.eh_frame)
 .eh_frame      0x02026194        0x0 /opt/devkitpro/devkitARM/lib/gcc/arm-eabi/4.4.3/thumb/crtbegin.o
 .eh_frame      0x02026194        0x4 /opt/devkitpro/devkitARM/lib/gcc/arm-eabi/4.4.3/thumb/crtend.o
                0x02026198                . = ALIGN (0x4)

.gcc_except_table
                0x02026198        0x0
 *(.gcc_except_table)
                0x02026198                . = ALIGN (0x4)

.jcr            0x02026198        0x4
 *(.jcr)
 .jcr           0x02026198        0x0 /opt/devkitpro/devkitARM/lib/gcc/arm-eabi/4.4.3/thumb/crtbegin.o
 .jcr           0x02026198        0x4 /opt/devkitpro/devkitARM/lib/gcc/arm-eabi/4.4.3/thumb/crtend.o

.got
 *(.got.plt)
 *(.got)
 *(.rel.got)

.ewram          0x0202619c        0x0
                0x0202619c                __ewram_start = ABSOLUTE (.)
 *(.ewram)
 *ewram.*(.text)
                0x0202619c                . = ALIGN (0x4)

.data           0x0202619c     0x120c
                0x0202619c                __data_start = ABSOLUTE (.)
 *(.data)
 .data          0x0202619c        0x0 /opt/devkitpro/devkitARM/lib/gcc/arm-eabi/4.4.3/../../../../arm-eabi/lib/thumb/ds_arm9_crt0.o
 .data          0x0202619c        0x0 /opt/devkitpro/devkitARM/lib/gcc/arm-eabi/4.4.3/thumb/crti.o
 .data          0x0202619c        0x4 /opt/devkitpro/devkitARM/lib/gcc/arm-eabi/4.4.3/thumb/crtbegin.o
                0x0202619c                __dso_handle
 .data          0x020261a0        0x0 load.bin.o
 .data          0x020261a0        0x0 bootstrap.o
 .data          0x020261a0        0x0 nds_loader_arm9.o
 .data          0x020261a0        0x0 /opt/devkitpro/libnds/lib/libfat.a(libfat.o)
 .data          0x020261a0        0x4 /opt/devkitpro/libnds/lib/libfat.a(partition.o)
                0x020261a0                DEVICE_NAME
 .data          0x020261a4        0x0 /opt/devkitpro/libnds/lib/libfat.a(cache.o)
 .data          0x020261a4        0x0 /opt/devkitpro/libnds/lib/libfat.a(directory.o)
 .data          0x020261a4        0x0 /opt/devkitpro/libnds/lib/libfat.a(disc.o)
 .data          0x020261a4        0x0 /opt/devkitpro/libnds/lib/libfat.a(fatdir.o)
 .data          0x020261a4        0x0 /opt/devkitpro/libnds/lib/libfat.a(fatfile.o)
 .data          0x020261a4        0x0 /opt/devkitpro/libnds/lib/libfat.a(file_allocation_table.o)
 .data          0x020261a4        0x0 /opt/devkitpro/libnds/lib/libfat.a(filetime.o)
 .data          0x020261a4       0x64 /opt/devkitpro/libnds/lib/libnds9.a(console.o)
                0x020261a4                defaultConsole
                0x02026200                currentConsole
 .data          0x02026208        0x4 /opt/devkitpro/libnds/lib/libnds9.a(dldi.o)
                0x02026208                io_dldi_data
 .data          0x0202620c        0x0 /opt/devkitpro/libnds/lib/libnds9.a(initSystem.o)
 .data          0x0202620c       0x10 /opt/devkitpro/libnds/lib/libnds9.a(fifosystem.o)
                0x0202620c                fifo_freewords
                0x02026210                fifo_send_queue
                0x02026214                fifo_buffer_free
                0x02026218                fifo_receive_queue
 .data          0x0202621c        0x0 /opt/devkitpro/libnds/lib/libnds9.a(interrupts.o)
 .data          0x0202621c        0x0 /opt/devkitpro/libnds/lib/libnds9.a(libnds_exit.o)
 .data          0x0202621c        0x0 /opt/devkitpro/libnds/lib/libnds9.a(reset.o)
 .data          0x0202621c        0x0 /opt/devkitpro/libnds/lib/libnds9.a(dldi_stub.o)
 .data          0x0202621c        0x0 /opt/devkitpro/libnds/lib/libnds9.a(mpu_setup.o)
 .data          0x0202621c        0x0 /opt/devkitpro/libnds/lib/libnds9.a(biosCalls.o)
 .data          0x0202621c        0x0 /opt/devkitpro/libnds/lib/libnds9.a(debugprint.o)
 .data          0x0202621c        0x0 /opt/devkitpro/libnds/lib/libnds9.a(interruptDispatcher.o)
 .data          0x0202621c        0x0 /opt/devkitpro/libnds/lib/libnds9.a(swiSoftReset.o)
 .data          0x0202621c        0x0 /opt/devkitpro/libnds/lib/libnds9.a(default_font.bin.o)
 .data          0x0202621c       0x60 /opt/devkitpro/libnds/lib/libnds9.a(background.o)
                0x0202621c                bgScrollTable
                0x0202623c                bgTransform
                0x0202625c                bgControl
 .data          0x0202627c        0x0 /opt/devkitpro/libnds/lib/libnds9.a(system.o)
 .data          0x0202627c      0x308 /opt/devkitpro/libnds/lib/libnds9.a(trig.o)
                0x0202627c                SIN_LUT
                0x02026380                TAN_LUT
 .data          0x02026584        0x0 /opt/devkitpro/devkitARM/lib/gcc/arm-eabi/4.4.3/thumb/libgcc.a(_udivsi3.o)
 .data          0x02026584        0x0 /opt/devkitpro/devkitARM/lib/gcc/arm-eabi/4.4.3/thumb/libgcc.a(_divsi3.o)
 .data          0x02026584        0x0 /opt/devkitpro/devkitARM/lib/gcc/arm-eabi/4.4.3/thumb/libgcc.a(_dvmd_tls.o)
 .data          0x02026584        0x0 /opt/devkitpro/devkitARM/lib/gcc/arm-eabi/4.4.3/../../../../arm-eabi/lib/thumb/libg.a(lib_a-bsearch.o)
 *fill*         0x02026584        0x4 ff
 .data          0x02026588      0x430 /opt/devkitpro/devkitARM/lib/gcc/arm-eabi/4.4.3/../../../../arm-eabi/lib/thumb/libg.a(lib_a-impure.o)
                0x02026588                _impure_ptr
 .data          0x020269b8        0x0 /opt/devkitpro/devkitARM/lib/gcc/arm-eabi/4.4.3/../../../../arm-eabi/lib/thumb/libg.a(lib_a-init.o)
 .data          0x020269b8        0x0 /opt/devkitpro/devkitARM/lib/gcc/arm-eabi/4.4.3/../../../../arm-eabi/lib/thumb/libg.a(lib_a-iprintf.o)
 .data          0x020269b8        0x0 /opt/devkitpro/devkitARM/lib/gcc/arm-eabi/4.4.3/../../../../arm-eabi/lib/thumb/libg.a(lib_a-lcltime_r.o)
 .data          0x020269b8      0x144 /opt/devkitpro/devkitARM/lib/gcc/arm-eabi/4.4.3/../../../../arm-eabi/lib/thumb/libg.a(lib_a-locale.o)
                0x020269f8                __default_locale
                0x02026a18                __mb_cur_max
 .data          0x02026afc        0x0 /opt/devkitpro/devkitARM/lib/gcc/arm-eabi/4.4.3/../../../../arm-eabi/lib/thumb/libg.a(lib_a-malloc.o)
 .data          0x02026afc      0x410 /opt/devkitpro/devkitARM/lib/gcc/arm-eabi/4.4.3/../../../../arm-eabi/lib/thumb/libg.a(lib_a-mallocr.o)
                0x02026afc                __malloc_av_
                0x02026f04                __malloc_sbrk_base
                0x02026f08                __malloc_trim_threshold
 .data          0x02026f0c        0x0 /opt/devkitpro/devkitARM/lib/gcc/arm-eabi/4.4.3/../../../../arm-eabi/lib/thumb/libg.a(lib_a-mbrtowc.o)
 .data          0x02026f0c        0x0 /opt/devkitpro/devkitARM/lib/gcc/arm-eabi/4.4.3/../../../../arm-eabi/lib/thumb/libg.a(lib_a-mbsrtowcs.o)
 .data          0x02026f0c        0x4 /opt/devkitpro/devkitARM/lib/gcc/arm-eabi/4.4.3/../../../../arm-eabi/lib/thumb/libg.a(lib_a-mbtowc_r.o)
                0x02026f0c                __mbtowc
 .data          0x02026f10        0x0 /opt/devkitpro/devkitARM/lib/gcc/arm-eabi/4.4.3/../../../../arm-eabi/lib/thumb/libg.a(lib_a-memcmp.o)
 .data          0x02026f10        0x0 /opt/devkitpro/devkitARM/lib/gcc/arm-eabi/4.4.3/../../../../arm-eabi/lib/thumb/libg.a(lib_a-memcpy.o)
 .data          0x02026f10        0x0 /opt/devkitpro/devkitARM/lib/gcc/arm-eabi/4.4.3/../../../../arm-eabi/lib/thumb/libg.a(lib_a-memmove.o)
 .data          0x02026f10        0x0 /opt/devkitpro/devkitARM/lib/gcc/arm-eabi/4.4.3/../../../../arm-eabi/lib/thumb/libg.a(lib_a-memset.o)
 .data          0x02026f10        0x0 /opt/devkitpro/devkitARM/lib/gcc/arm-eabi/4.4.3/../../../../arm-eabi/lib/thumb/libg.a(lib_a-mktime.o)
 .data          0x02026f10        0x0 /opt/devkitpro/devkitARM/lib/gcc/arm-eabi/4.4.3/../../../../arm-eabi/lib/thumb/libg.a(lib_a-mktm_r.o)
 .data          0x02026f10        0x0 /opt/devkitpro/devkitARM/lib/gcc/arm-eabi/4.4.3/../../../../arm-eabi/lib/thumb/libg.a(lib_a-mlock.o)
 .data          0x02026f10        0x0 /opt/devkitpro/devkitARM/lib/gcc/arm-eabi/4.4.3/../../../../arm-eabi/lib/thumb/libg.a(lib_a-puts.o)
 .data          0x02026f10        0x0 /opt/devkitpro/devkitARM/lib/gcc/arm-eabi/4.4.3/../../../../arm-eabi/lib/thumb/libg.a(lib_a-setvbuf.o)
 .data          0x02026f10        0x0 /opt/devkitpro/devkitARM/lib/gcc/arm-eabi/4.4.3/../../../../arm-eabi/lib/thumb/libg.a(lib_a-siscanf.o)
 .data          0x02026f10        0x0 /opt/devkitpro/devkitARM/lib/gcc/arm-eabi/4.4.3/../../../../arm-eabi/lib/thumb/libg.a(lib_a-stdio.o)
 .data          0x02026f10        0x0 /opt/devkitpro/devkitARM/lib/gcc/arm-eabi/4.4.3/../../../../arm-eabi/lib/thumb/libg.a(lib_a-strcasecmp.o)
 .data          0x02026f10        0x0 /opt/devkitpro/devkitARM/lib/gcc/arm-eabi/4.4.3/../../../../arm-eabi/lib/thumb/libg.a(lib_a-strcat.o)
 .data          0x02026f10        0x0 /opt/devkitpro/devkitARM/lib/gcc/arm-eabi/4.4.3/../../../../arm-eabi/lib/thumb/libg.a(lib_a-strchr.o)
 .data          0x02026f10        0x0 /opt/devkitpro/devkitARM/lib/gcc/arm-eabi/4.4.3/../../../../arm-eabi/lib/thumb/libg.a(lib_a-strcmp.o)
 .data          0x02026f10        0x0 /opt/devkitpro/devkitARM/lib/gcc/arm-eabi/4.4.3/../../../../arm-eabi/lib/thumb/libg.a(lib_a-strcpy.o)
 .data          0x02026f10        0x0 /opt/devkitpro/devkitARM/lib/gcc/arm-eabi/4.4.3/../../../../arm-eabi/lib/thumb/libg.a(lib_a-strlcpy.o)
 .data          0x02026f10        0x0 /opt/devkitpro/devkitARM/lib/gcc/arm-eabi/4.4.3/../../../../arm-eabi/lib/thumb/libg.a(lib_a-strlen.o)
 .data          0x02026f10        0x0 /opt/devkitpro/devkitARM/lib/gcc/arm-eabi/4.4.3/../../../../arm-eabi/lib/thumb/libg.a(lib_a-strncasecmp.o)
 .data          0x02026f10        0x0 /opt/devkitpro/devkitARM/lib/gcc/arm-eabi/4.4.3/../../../../arm-eabi/lib/thumb/libg.a(lib_a-strncmp.o)
 .data          0x02026f10        0x0 /opt/devkitpro/devkitARM/lib/gcc/arm-eabi/4.4.3/../../../../arm-eabi/lib/thumb/libg.a(lib_a-strncpy.o)
 .data          0x02026f10        0x0 /opt/devkitpro/devkitARM/lib/gcc/arm-eabi/4.4.3/../../../../arm-eabi/lib/thumb/libg.a(lib_a-strnlen.o)
 .data          0x02026f10        0x0 /opt/devkitpro/devkitARM/lib/gcc/arm-eabi/4.4.3/../../../../arm-eabi/lib/thumb/libg.a(lib_a-strpbrk.o)
 .data          0x02026f10        0x0 /opt/devkitpro/devkitARM/lib/gcc/arm-eabi/4.4.3/../../../../arm-eabi/lib/thumb/libg.a(lib_a-strrchr.o)
 .data          0x02026f10        0x0 /opt/devkitpro/devkitARM/lib/gcc/arm-eabi/4.4.3/../../../../arm-eabi/lib/thumb/libg.a(lib_a-strtol.o)
 .data          0x02026f10        0x0 /opt/devkitpro/devkitARM/lib/gcc/arm-eabi/4.4.3/../../../../arm-eabi/lib/thumb/libg.a(lib_a-svfiscanf.o)
 .data          0x02026f10        0x0 /opt/devkitpro/devkitARM/lib/gcc/arm-eabi/4.4.3/../../../../arm-eabi/lib/thumb/libg.a(lib_a-sysclose.o)
 .data          0x02026f10        0x0 /opt/devkitpro/devkitARM/lib/gcc/arm-eabi/4.4.3/../../../../arm-eabi/lib/thumb/libg.a(lib_a-syslseek.o)
 .data          0x02026f10        0x0 /opt/devkitpro/devkitARM/lib/gcc/arm-eabi/4.4.3/../../../../arm-eabi/lib/thumb/libg.a(lib_a-sysopen.o)
 .data          0x02026f10        0x0 /opt/devkitpro/devkitARM/lib/gcc/arm-eabi/4.4.3/../../../../arm-eabi/lib/thumb/libg.a(lib_a-sysread.o)
 .data          0x02026f10        0x0 /opt/devkitpro/devkitARM/lib/gcc/arm-eabi/4.4.3/../../../../arm-eabi/lib/thumb/libg.a(lib_a-sysstat.o)
 .data          0x02026f10        0x0 /opt/devkitpro/devkitARM/lib/gcc/arm-eabi/4.4.3/../../../../arm-eabi/lib/thumb/libg.a(lib_a-time.o)
 .data          0x02026f10        0x0 /opt/devkitpro/devkitARM/lib/gcc/arm-eabi/4.4.3/../../../../arm-eabi/lib/thumb/libg.a(lib_a-towlower.o)
 .data          0x02026f10        0x0 /opt/devkitpro/devkitARM/lib/gcc/arm-eabi/4.4.3/../../../../arm-eabi/lib/thumb/libg.a(lib_a-towupper.o)
 .data          0x02026f10        0x0 /opt/devkitpro/devkitARM/lib/gcc/arm-eabi/4.4.3/../../../../arm-eabi/lib/thumb/libg.a(lib_a-tzlock.o)
 .data          0x02026f10        0x8 /opt/devkitpro/devkitARM/lib/gcc/arm-eabi/4.4.3/../../../../arm-eabi/lib/thumb/libg.a(lib_a-tzvars.o)
                0x02026f10                _tzname
 .data          0x02026f18        0x0 /opt/devkitpro/devkitARM/lib/gcc/arm-eabi/4.4.3/../../../../arm-eabi/lib/thumb/libg.a(lib_a-ungetc.o)
 .data          0x02026f18        0x0 /opt/devkitpro/devkitARM/lib/gcc/arm-eabi/4.4.3/../../../../arm-eabi/lib/thumb/libg.a(lib_a-vfiprintf.o)
 .data          0x02026f18        0x0 /opt/devkitpro/devkitARM/lib/gcc/arm-eabi/4.4.3/../../../../arm-eabi/lib/thumb/libg.a(lib_a-wcrtomb.o)
 .data          0x02026f18        0x0 /opt/devkitpro/devkitARM/lib/gcc/arm-eabi/4.4.3/../../../../arm-eabi/lib/thumb/libg.a(lib_a-wcsrtombs.o)
 .data          0x02026f18        0x0 /opt/devkitpro/devkitARM/lib/gcc/arm-eabi/4.4.3/../../../../arm-eabi/lib/thumb/libg.a(lib_a-wctob.o)
 .data          0x02026f18        0x4 /opt/devkitpro/devkitARM/lib/gcc/arm-eabi/4.4.3/../../../../arm-eabi/lib/thumb/libg.a(lib_a-wctomb_r.o)
                0x02026f18                __wctomb
 .data          0x02026f1c        0x0 /opt/devkitpro/devkitARM/lib/gcc/arm-eabi/4.4.3/../../../../arm-eabi/lib/thumb/libg.a(lib_a-wsetup.o)
 .data          0x02026f1c        0x4 /opt/devkitpro/devkitARM/lib/gcc/arm-eabi/4.4.3/../../../../arm-eabi/lib/thumb/libg.a(lib_a-ctype_.o)
                0x02026f1c                __ctype_ptr__
 .data          0x02026f20        0x0 /opt/devkitpro/devkitARM/lib/gcc/arm-eabi/4.4.3/../../../../arm-eabi/lib/thumb/libg.a(lib_a-div.o)
 .data          0x02026f20        0x0 /opt/devkitpro/devkitARM/lib/gcc/arm-eabi/4.4.3/../../../../arm-eabi/lib/thumb/libg.a(lib_a-fflush.o)
 .data          0x02026f20        0x0 /opt/devkitpro/devkitARM/lib/gcc/arm-eabi/4.4.3/../../../../arm-eabi/lib/thumb/libg.a(lib_a-findfp.o)
 .data          0x02026f20        0x0 /opt/devkitpro/devkitARM/lib/gcc/arm-eabi/4.4.3/../../../../arm-eabi/lib/thumb/libg.a(lib_a-fputwc.o)
 .data          0x02026f20        0x0 /opt/devkitpro/devkitARM/lib/gcc/arm-eabi/4.4.3/../../../../arm-eabi/lib/thumb/libg.a(lib_a-freer.o)
 .data          0x02026f20        0x0 /opt/devkitpro/devkitARM/lib/gcc/arm-eabi/4.4.3/../../../../arm-eabi/lib/thumb/libg.a(lib_a-fvwrite.o)
 .data          0x02026f20        0x0 /opt/devkitpro/devkitARM/lib/gcc/arm-eabi/4.4.3/../../../../arm-eabi/lib/thumb/libg.a(lib_a-fwalk.o)
 .data          0x02026f20        0x0 /opt/devkitpro/devkitARM/lib/gcc/arm-eabi/4.4.3/../../../../arm-eabi/lib/thumb/libg.a(lib_a-getenv_r.o)
 .data          0x02026f20       0x40 /opt/devkitpro/devkitARM/lib/gcc/arm-eabi/4.4.3/../../../../arm-eabi/lib/thumb/libg.a(lib_a-gettzinfo.o)
 .data          0x02026f60        0x0 /opt/devkitpro/devkitARM/lib/gcc/arm-eabi/4.4.3/../../../../arm-eabi/lib/thumb/libg.a(lib_a-iswspace.o)
 .data          0x02026f60        0x0 /opt/devkitpro/devkitARM/lib/gcc/arm-eabi/4.4.3/../../../../arm-eabi/lib/thumb/libg.a(lib_a-jp2uc.o)
 .data          0x02026f60        0x0 /opt/devkitpro/devkitARM/lib/gcc/arm-eabi/4.4.3/../../../../arm-eabi/lib/thumb/libg.a(lib_a-makebuf.o)
 .data          0x02026f60        0x0 /opt/devkitpro/devkitARM/lib/gcc/arm-eabi/4.4.3/../../../../arm-eabi/lib/thumb/libg.a(lib_a-mbsnrtowcs.o)
 .data          0x02026f60        0x0 /opt/devkitpro/devkitARM/lib/gcc/arm-eabi/4.4.3/../../../../arm-eabi/lib/thumb/libg.a(lib_a-memchr.o)
 .data          0x02026f60        0x0 /opt/devkitpro/devkitARM/lib/gcc/arm-eabi/4.4.3/../../../../arm-eabi/lib/thumb/libg.a(lib_a-reallocr.o)
 .data          0x02026f60        0x0 /opt/devkitpro/devkitARM/lib/gcc/arm-eabi/4.4.3/../../../../arm-eabi/lib/thumb/libg.a(lib_a-sccl.o)
 .data          0x02026f60        0x0 /opt/devkitpro/devkitARM/lib/gcc/arm-eabi/4.4.3/../../../../arm-eabi/lib/thumb/libg.a(lib_a-strtoul.o)
 .data          0x02026f60        0x0 /opt/devkitpro/devkitARM/lib/gcc/arm-eabi/4.4.3/../../../../arm-eabi/lib/thumb/libg.a(lib_a-wbuf.o)
 .data          0x02026f60        0x0 /opt/devkitpro/devkitARM/lib/gcc/arm-eabi/4.4.3/../../../../arm-eabi/lib/thumb/libg.a(lib_a-wcsnrtombs.o)
 .data          0x02026f60        0x4 /opt/devkitpro/devkitARM/lib/gcc/arm-eabi/4.4.3/../../../../arm-eabi/lib/thumb/libg.a(lib_a-environ.o)
                0x02026f60                environ
 .data          0x02026f64        0x0 /opt/devkitpro/devkitARM/lib/gcc/arm-eabi/4.4.3/../../../../arm-eabi/lib/thumb/libg.a(lib_a-envlock.o)
 .data          0x02026f64        0x0 /opt/devkitpro/devkitARM/lib/gcc/arm-eabi/4.4.3/../../../../arm-eabi/lib/thumb/libg.a(lib_a-fclose.o)
 .data          0x02026f64       0x44 /opt/devkitpro/devkitARM/lib/gcc/arm-eabi/4.4.3/../../../../arm-eabi/lib/thumb/libsysbase.a(iosupport.o)
                0x02026f68                devoptab_list
 .data          0x02026fa8        0x0 /opt/devkitpro/devkitARM/lib/gcc/arm-eabi/4.4.3/../../../../arm-eabi/lib/thumb/libsysbase.a(close.o)
 .data          0x02026fa8        0x0 /opt/devkitpro/devkitARM/lib/gcc/arm-eabi/4.4.3/../../../../arm-eabi/lib/thumb/libsysbase.a(fstat.o)
 .data          0x02026fa8        0x0 /opt/devkitpro/devkitARM/lib/gcc/arm-eabi/4.4.3/../../../../arm-eabi/lib/thumb/libsysbase.a(isatty.o)
 .data          0x02026fa8        0x0 /opt/devkitpro/devkitARM/lib/gcc/arm-eabi/4.4.3/../../../../arm-eabi/lib/thumb/libsysbase.a(lseek.o)
 .data          0x02026fa8        0x0 /opt/devkitpro/devkitARM/lib/gcc/arm-eabi/4.4.3/../../../../arm-eabi/lib/thumb/libsysbase.a(open.o)
 .data          0x02026fa8        0x0 /opt/devkitpro/devkitARM/lib/gcc/arm-eabi/4.4.3/../../../../arm-eabi/lib/thumb/libsysbase.a(read.o)
 .data          0x02026fa8        0x0 /opt/devkitpro/devkitARM/lib/gcc/arm-eabi/4.4.3/../../../../arm-eabi/lib/thumb/libsysbase.a(sbrk.o)
 .data          0x02026fa8        0x0 /opt/devkitpro/devkitARM/lib/gcc/arm-eabi/4.4.3/../../../../arm-eabi/lib/thumb/libsysbase.a(stat.o)
 .data          0x02026fa8        0x0 /opt/devkitpro/devkitARM/lib/gcc/arm-eabi/4.4.3/../../../../arm-eabi/lib/thumb/libsysbase.a(times.o)
 .data          0x02026fa8        0x0 /opt/devkitpro/devkitARM/lib/gcc/arm-eabi/4.4.3/../../../../arm-eabi/lib/thumb/libsysbase.a(write.o)
 .data          0x02026fa8        0x0 /opt/devkitpro/devkitARM/lib/gcc/arm-eabi/4.4.3/../../../../arm-eabi/lib/thumb/libsysbase.a(malloc_vars.o)
 .data          0x02026fa8      0x400 /opt/devkitpro/devkitARM/lib/gcc/arm-eabi/4.4.3/../../../../arm-eabi/lib/thumb/libsysbase.a(chdir.o)
 .data          0x020273a8        0x0 /opt/devkitpro/devkitARM/lib/gcc/arm-eabi/4.4.3/../../../../arm-eabi/lib/thumb/libsysbase.a(build_argv.o)
 .data          0x020273a8        0x0 /opt/devkitpro/devkitARM/lib/gcc/arm-eabi/4.4.3/../../../../arm-eabi/lib/thumb/libsysbase.a(syscall_support.o)
 .data          0x020273a8        0x0 /opt/devkitpro/devkitARM/lib/gcc/arm-eabi/4.4.3/../../../../arm-eabi/lib/thumb/libsysbase.a(handle_manager.o)
 .data          0x020273a8        0x0 /opt/devkitpro/devkitARM/lib/gcc/arm-eabi/4.4.3/../../../../arm-eabi/lib/thumb/libg.a(lib_a-errno.o)
 .data          0x020273a8        0x0 /opt/devkitpro/devkitARM/lib/gcc/arm-eabi/4.4.3/thumb/crtend.o
 .data          0x020273a8        0x0 /opt/devkitpro/devkitARM/lib/gcc/arm-eabi/4.4.3/thumb/crtn.o
 *(.data.*)
 *(.gnu.linkonce.d*)
                0x020273a8                . = ALIGN (0x4)
                0x020273a8                __data_end = ABSOLUTE (.)
                0x020273a8                __dtcm_lma = .
                0x020273a8                __bss_vma = .

.dtcm           0x0b000000        0x0 load address 0x020273a8
 *(.dtcm)
 *(.dtcm.*)
                0x0b000000                . = ALIGN (0x4)
                0x0b000000                __dtcm_end = ABSOLUTE (.)
                0x020273a8                __itcm_lma = (__dtcm_lma + SIZEOF (.dtcm))

.itcm           0x01000100      0x194 load address 0x020273a8
 *(.itcm)
 .itcm          0x01000100       0xc8 /opt/devkitpro/libnds/lib/libnds9.a(interrupts.o)
                0x01000100                irqTable
 .itcm          0x010001c8       0xcc /opt/devkitpro/libnds/lib/libnds9.a(interruptDispatcher.o)
                0x010001c8                IntrMain
 *itcm.*(.text)
                0x01000294                . = ALIGN (0x4)
                0x01000294                __itcm_end = ABSOLUTE (.)
                0x0202753c                __vectors_lma = (__itcm_lma + SIZEOF (.itcm))

.vectors        0x01000000        0x0 load address 0x0202753c
 *(.vectors)
 *vectors.*(.text)
                0x01000000                . = ALIGN (0x4)
                0x01000000                __vectors_end = ABSOLUTE (.)

.sbss           0x0b000000        0x0
                0x0b000000                __sbss_start = ABSOLUTE (.)
                0x0b000000                __sbss_start__ = ABSOLUTE (.)
 *(.sbss)
                0x0b000000                . = ALIGN (0x4)
                0x0b000000                __sbss_end = ABSOLUTE (.)

.bss            0x020273a8     0x1f1c
                0x020273a8                __bss_start = ABSOLUTE (.)
                0x020273a8                __bss_start__ = ABSOLUTE (.)
 *(.dynbss)
 *(.gnu.linkonce.b*)
 *(.bss*)
 .bss           0x020273a8        0x0 /opt/devkitpro/devkitARM/lib/gcc/arm-eabi/4.4.3/../../../../arm-eabi/lib/thumb/ds_arm9_crt0.o
 .bss           0x020273a8        0x0 /opt/devkitpro/devkitARM/lib/gcc/arm-eabi/4.4.3/thumb/crti.o
 .bss           0x020273a8       0x1c /opt/devkitpro/devkitARM/lib/gcc/arm-eabi/4.4.3/thumb/crtbegin.o
 .bss           0x020273c4        0x0 load.bin.o
 .bss           0x020273c4        0x0 bootstrap.o
 .bss           0x020273c4        0x0 nds_loader_arm9.o
 .bss           0x020273c4        0x0 /opt/devkitpro/libnds/lib/libfat.a(libfat.o)
 .bss           0x020273c4        0x0 /opt/devkitpro/libnds/lib/libfat.a(partition.o)
 .bss           0x020273c4        0x4 /opt/devkitpro/libnds/lib/libfat.a(cache.o)
 .bss           0x020273c8        0x0 /opt/devkitpro/libnds/lib/libfat.a(directory.o)
 .bss           0x020273c8        0x0 /opt/devkitpro/libnds/lib/libfat.a(disc.o)
 .bss           0x020273c8        0x0 /opt/devkitpro/libnds/lib/libfat.a(fatdir.o)
 .bss           0x020273c8        0x0 /opt/devkitpro/libnds/lib/libfat.a(fatfile.o)
 .bss           0x020273c8        0x0 /opt/devkitpro/libnds/lib/libfat.a(file_allocation_table.o)
 .bss           0x020273c8        0x0 /opt/devkitpro/libnds/lib/libfat.a(filetime.o)
 .bss           0x020273c8        0x0 /opt/devkitpro/libnds/lib/libnds9.a(console.o)
 .bss           0x020273c8        0x0 /opt/devkitpro/libnds/lib/libnds9.a(dldi.o)
 .bss           0x020273c8        0x0 /opt/devkitpro/libnds/lib/libnds9.a(initSystem.o)
 .bss           0x020273c8        0x8 /opt/devkitpro/libnds/lib/libnds9.a(fifosystem.o)
                0x020273cc                processing
 .bss           0x020273d0        0x0 /opt/devkitpro/libnds/lib/libnds9.a(interrupts.o)
 .bss           0x020273d0        0x0 /opt/devkitpro/libnds/lib/libnds9.a(libnds_exit.o)
 .bss           0x020273d0        0x0 /opt/devkitpro/libnds/lib/libnds9.a(reset.o)
 .bss           0x020273d0        0x0 /opt/devkitpro/libnds/lib/libnds9.a(dldi_stub.o)
 .bss           0x020273d0        0x0 /opt/devkitpro/libnds/lib/libnds9.a(mpu_setup.o)
 .bss           0x020273d0        0x0 /opt/devkitpro/libnds/lib/libnds9.a(biosCalls.o)
 .bss           0x020273d0        0x0 /opt/devkitpro/libnds/lib/libnds9.a(debugprint.o)
 .bss           0x020273d0        0x0 /opt/devkitpro/libnds/lib/libnds9.a(interruptDispatcher.o)
 .bss           0x020273d0        0x0 /opt/devkitpro/libnds/lib/libnds9.a(swiSoftReset.o)
 .bss           0x020273d0        0x0 /opt/devkitpro/libnds/lib/libnds9.a(default_font.bin.o)
 .bss           0x020273d0        0x0 /opt/devkitpro/libnds/lib/libnds9.a(background.o)
 .bss           0x020273d0        0x0 /opt/devkitpro/libnds/lib/libnds9.a(system.o)
 .bss           0x020273d0        0x0 /opt/devkitpro/libnds/lib/libnds9.a(trig.o)
 .bss           0x020273d0        0x0 /opt/devkitpro/devkitARM/lib/gcc/arm-eabi/4.4.3/thumb/libgcc.a(_udivsi3.o)
 .bss           0x020273d0        0x0 /opt/devkitpro/devkitARM/lib/gcc/arm-eabi/4.4.3/thumb/libgcc.a(_divsi3.o)
 .bss           0x020273d0        0x0 /opt/devkitpro/devkitARM/lib/gcc/arm-eabi/4.4.3/thumb/libgcc.a(_dvmd_tls.o)
 .bss           0x020273d0        0x0 /opt/devkitpro/devkitARM/lib/gcc/arm-eabi/4.4.3/../../../../arm-eabi/lib/thumb/libg.a(lib_a-bsearch.o)
 .bss           0x020273d0        0x0 /opt/devkitpro/devkitARM/lib/gcc/arm-eabi/4.4.3/../../../../arm-eabi/lib/thumb/libg.a(lib_a-impure.o)
 .bss           0x020273d0        0x0 /opt/devkitpro/devkitARM/lib/gcc/arm-eabi/4.4.3/../../../../arm-eabi/lib/thumb/libg.a(lib_a-init.o)
 .bss           0x020273d0        0x0 /opt/devkitpro/devkitARM/lib/gcc/arm-eabi/4.4.3/../../../../arm-eabi/lib/thumb/libg.a(lib_a-iprintf.o)
 .bss           0x020273d0        0x0 /opt/devkitpro/devkitARM/lib/gcc/arm-eabi/4.4.3/../../../../arm-eabi/lib/thumb/libg.a(lib_a-lcltime_r.o)
 .bss           0x020273d0      0x2b8 /opt/devkitpro/devkitARM/lib/gcc/arm-eabi/4.4.3/../../../../arm-eabi/lib/thumb/libg.a(lib_a-locale.o)
                0x0202767c                __nlocale_changed
                0x02027680                __mlocale_changed
                0x02027684                _PathLocale
 .bss           0x02027688        0x0 /opt/devkitpro/devkitARM/lib/gcc/arm-eabi/4.4.3/../../../../arm-eabi/lib/thumb/libg.a(lib_a-malloc.o)
 .bss           0x02027688       0x34 /opt/devkitpro/devkitARM/lib/gcc/arm-eabi/4.4.3/../../../../arm-eabi/lib/thumb/libg.a(lib_a-mallocr.o)
                0x02027688                __malloc_top_pad
                0x0202768c                __malloc_current_mallinfo
                0x020276b4                __malloc_max_sbrked_mem
                0x020276b8                __malloc_max_total_mem
 .bss           0x020276bc        0x0 /opt/devkitpro/devkitARM/lib/gcc/arm-eabi/4.4.3/../../../../arm-eabi/lib/thumb/libg.a(lib_a-mbrtowc.o)
 .bss           0x020276bc        0x0 /opt/devkitpro/devkitARM/lib/gcc/arm-eabi/4.4.3/../../../../arm-eabi/lib/thumb/libg.a(lib_a-mbsrtowcs.o)
 .bss           0x020276bc        0x0 /opt/devkitpro/devkitARM/lib/gcc/arm-eabi/4.4.3/../../../../arm-eabi/lib/thumb/libg.a(lib_a-mbtowc_r.o)
 .bss           0x020276bc        0x0 /opt/devkitpro/devkitARM/lib/gcc/arm-eabi/4.4.3/../../../../arm-eabi/lib/thumb/libg.a(lib_a-memcmp.o)
 .bss           0x020276bc        0x0 /opt/devkitpro/devkitARM/lib/gcc/arm-eabi/4.4.3/../../../../arm-eabi/lib/thumb/libg.a(lib_a-memcpy.o)
 .bss           0x020276bc        0x0 /opt/devkitpro/devkitARM/lib/gcc/arm-eabi/4.4.3/../../../../arm-eabi/lib/thumb/libg.a(lib_a-memmove.o)
 .bss           0x020276bc        0x0 /opt/devkitpro/devkitARM/lib/gcc/arm-eabi/4.4.3/../../../../arm-eabi/lib/thumb/libg.a(lib_a-memset.o)
 .bss           0x020276bc        0x0 /opt/devkitpro/devkitARM/lib/gcc/arm-eabi/4.4.3/../../../../arm-eabi/lib/thumb/libg.a(lib_a-mktime.o)
 .bss           0x020276bc        0x0 /opt/devkitpro/devkitARM/lib/gcc/arm-eabi/4.4.3/../../../../arm-eabi/lib/thumb/libg.a(lib_a-mktm_r.o)
 .bss           0x020276bc        0x0 /opt/devkitpro/devkitARM/lib/gcc/arm-eabi/4.4.3/../../../../arm-eabi/lib/thumb/libg.a(lib_a-mlock.o)
 .bss           0x020276bc        0x0 /opt/devkitpro/devkitARM/lib/gcc/arm-eabi/4.4.3/../../../../arm-eabi/lib/thumb/libg.a(lib_a-puts.o)
 .bss           0x020276bc        0x0 /opt/devkitpro/devkitARM/lib/gcc/arm-eabi/4.4.3/../../../../arm-eabi/lib/thumb/libg.a(lib_a-setvbuf.o)
 .bss           0x020276bc        0x0 /opt/devkitpro/devkitARM/lib/gcc/arm-eabi/4.4.3/../../../../arm-eabi/lib/thumb/libg.a(lib_a-siscanf.o)
 .bss           0x020276bc        0x0 /opt/devkitpro/devkitARM/lib/gcc/arm-eabi/4.4.3/../../../../arm-eabi/lib/thumb/libg.a(lib_a-stdio.o)
 .bss           0x020276bc        0x0 /opt/devkitpro/devkitARM/lib/gcc/arm-eabi/4.4.3/../../../../arm-eabi/lib/thumb/libg.a(lib_a-strcasecmp.o)
 .bss           0x020276bc        0x0 /opt/devkitpro/devkitARM/lib/gcc/arm-eabi/4.4.3/../../../../arm-eabi/lib/thumb/libg.a(lib_a-strcat.o)
 .bss           0x020276bc        0x0 /opt/devkitpro/devkitARM/lib/gcc/arm-eabi/4.4.3/../../../../arm-eabi/lib/thumb/libg.a(lib_a-strchr.o)
 .bss           0x020276bc        0x0 /opt/devkitpro/devkitARM/lib/gcc/arm-eabi/4.4.3/../../../../arm-eabi/lib/thumb/libg.a(lib_a-strcmp.o)
 .bss           0x020276bc        0x0 /opt/devkitpro/devkitARM/lib/gcc/arm-eabi/4.4.3/../../../../arm-eabi/lib/thumb/libg.a(lib_a-strcpy.o)
 .bss           0x020276bc        0x0 /opt/devkitpro/devkitARM/lib/gcc/arm-eabi/4.4.3/../../../../arm-eabi/lib/thumb/libg.a(lib_a-strlcpy.o)
 .bss           0x020276bc        0x0 /opt/devkitpro/devkitARM/lib/gcc/arm-eabi/4.4.3/../../../../arm-eabi/lib/thumb/libg.a(lib_a-strlen.o)
 .bss           0x020276bc        0x0 /opt/devkitpro/devkitARM/lib/gcc/arm-eabi/4.4.3/../../../../arm-eabi/lib/thumb/libg.a(lib_a-strncasecmp.o)
 .bss           0x020276bc        0x0 /opt/devkitpro/devkitARM/lib/gcc/arm-eabi/4.4.3/../../../../arm-eabi/lib/thumb/libg.a(lib_a-strncmp.o)
 .bss           0x020276bc        0x0 /opt/devkitpro/devkitARM/lib/gcc/arm-eabi/4.4.3/../../../../arm-eabi/lib/thumb/libg.a(lib_a-strncpy.o)
 .bss           0x020276bc        0x0 /opt/devkitpro/devkitARM/lib/gcc/arm-eabi/4.4.3/../../../../arm-eabi/lib/thumb/libg.a(lib_a-strnlen.o)
 .bss           0x020276bc        0x0 /opt/devkitpro/devkitARM/lib/gcc/arm-eabi/4.4.3/../../../../arm-eabi/lib/thumb/libg.a(lib_a-strpbrk.o)
 .bss           0x020276bc        0x0 /opt/devkitpro/devkitARM/lib/gcc/arm-eabi/4.4.3/../../../../arm-eabi/lib/thumb/libg.a(lib_a-strrchr.o)
 .bss           0x020276bc        0x0 /opt/devkitpro/devkitARM/lib/gcc/arm-eabi/4.4.3/../../../../arm-eabi/lib/thumb/libg.a(lib_a-strtol.o)
 .bss           0x020276bc        0x0 /opt/devkitpro/devkitARM/lib/gcc/arm-eabi/4.4.3/../../../../arm-eabi/lib/thumb/libg.a(lib_a-svfiscanf.o)
 .bss           0x020276bc        0x0 /opt/devkitpro/devkitARM/lib/gcc/arm-eabi/4.4.3/../../../../arm-eabi/lib/thumb/libg.a(lib_a-sysclose.o)
 .bss           0x020276bc        0x0 /opt/devkitpro/devkitARM/lib/gcc/arm-eabi/4.4.3/../../../../arm-eabi/lib/thumb/libg.a(lib_a-syslseek.o)
 .bss           0x020276bc        0x0 /opt/devkitpro/devkitARM/lib/gcc/arm-eabi/4.4.3/../../../../arm-eabi/lib/thumb/libg.a(lib_a-sysopen.o)
 .bss           0x020276bc        0x0 /opt/devkitpro/devkitARM/lib/gcc/arm-eabi/4.4.3/../../../../arm-eabi/lib/thumb/libg.a(lib_a-sysread.o)
 .bss           0x020276bc        0x0 /opt/devkitpro/devkitARM/lib/gcc/arm-eabi/4.4.3/../../../../arm-eabi/lib/thumb/libg.a(lib_a-sysstat.o)
 .bss           0x020276bc        0x0 /opt/devkitpro/devkitARM/lib/gcc/arm-eabi/4.4.3/../../../../arm-eabi/lib/thumb/libg.a(lib_a-time.o)
 .bss           0x020276bc        0x0 /opt/devkitpro/devkitARM/lib/gcc/arm-eabi/4.4.3/../../../../arm-eabi/lib/thumb/libg.a(lib_a-towlower.o)
 .bss           0x020276bc        0x0 /opt/devkitpro/devkitARM/lib/gcc/arm-eabi/4.4.3/../../../../arm-eabi/lib/thumb/libg.a(lib_a-towupper.o)
 .bss           0x020276bc        0x0 /opt/devkitpro/devkitARM/lib/gcc/arm-eabi/4.4.3/../../../../arm-eabi/lib/thumb/libg.a(lib_a-tzlock.o)
 .bss           0x020276bc        0x8 /opt/devkitpro/devkitARM/lib/gcc/arm-eabi/4.4.3/../../../../arm-eabi/lib/thumb/libg.a(lib_a-tzvars.o)
                0x020276bc                _daylight
                0x020276c0                _timezone
 .bss           0x020276c4        0x0 /opt/devkitpro/devkitARM/lib/gcc/arm-eabi/4.4.3/../../../../arm-eabi/lib/thumb/libg.a(lib_a-ungetc.o)
 .bss           0x020276c4        0x0 /opt/devkitpro/devkitARM/lib/gcc/arm-eabi/4.4.3/../../../../arm-eabi/lib/thumb/libg.a(lib_a-vfiprintf.o)
 .bss           0x020276c4        0x0 /opt/devkitpro/devkitARM/lib/gcc/arm-eabi/4.4.3/../../../../arm-eabi/lib/thumb/libg.a(lib_a-wcrtomb.o)
 .bss           0x020276c4        0x0 /opt/devkitpro/devkitARM/lib/gcc/arm-eabi/4.4.3/../../../../arm-eabi/lib/thumb/libg.a(lib_a-wcsrtombs.o)
 .bss           0x020276c4        0x0 /opt/devkitpro/devkitARM/lib/gcc/arm-eabi/4.4.3/../../../../arm-eabi/lib/thumb/libg.a(lib_a-wctob.o)
 .bss           0x020276c4        0x0 /opt/devkitpro/devkitARM/lib/gcc/arm-eabi/4.4.3/../../../../arm-eabi/lib/thumb/libg.a(lib_a-wctomb_r.o)
 .bss           0x020276c4        0x0 /opt/devkitpro/devkitARM/lib/gcc/arm-eabi/4.4.3/../../../../arm-eabi/lib/thumb/libg.a(lib_a-wsetup.o)
 .bss           0x020276c4        0x0 /opt/devkitpro/devkitARM/lib/gcc/arm-eabi/4.4.3/../../../../arm-eabi/lib/thumb/libg.a(lib_a-ctype_.o)
 .bss           0x020276c4        0x0 /opt/devkitpro/devkitARM/lib/gcc/arm-eabi/4.4.3/../../../../arm-eabi/lib/thumb/libg.a(lib_a-div.o)
 .bss           0x020276c4        0x0 /opt/devkitpro/devkitARM/lib/gcc/arm-eabi/4.4.3/../../../../arm-eabi/lib/thumb/libg.a(lib_a-fflush.o)
 .bss           0x020276c4        0x0 /opt/devkitpro/devkitARM/lib/gcc/arm-eabi/4.4.3/../../../../arm-eabi/lib/thumb/libg.a(lib_a-findfp.o)
 .bss           0x020276c4        0x0 /opt/devkitpro/devkitARM/lib/gcc/arm-eabi/4.4.3/../../../../arm-eabi/lib/thumb/libg.a(lib_a-fputwc.o)
 .bss           0x020276c4        0x0 /opt/devkitpro/devkitARM/lib/gcc/arm-eabi/4.4.3/../../../../arm-eabi/lib/thumb/libg.a(lib_a-freer.o)
 .bss           0x020276c4        0x0 /opt/devkitpro/devkitARM/lib/gcc/arm-eabi/4.4.3/../../../../arm-eabi/lib/thumb/libg.a(lib_a-fvwrite.o)
 .bss           0x020276c4        0x0 /opt/devkitpro/devkitARM/lib/gcc/arm-eabi/4.4.3/../../../../arm-eabi/lib/thumb/libg.a(lib_a-fwalk.o)
 .bss           0x020276c4        0x0 /opt/devkitpro/devkitARM/lib/gcc/arm-eabi/4.4.3/../../../../arm-eabi/lib/thumb/libg.a(lib_a-getenv_r.o)
 .bss           0x020276c4        0x0 /opt/devkitpro/devkitARM/lib/gcc/arm-eabi/4.4.3/../../../../arm-eabi/lib/thumb/libg.a(lib_a-gettzinfo.o)
 .bss           0x020276c4        0x0 /opt/devkitpro/devkitARM/lib/gcc/arm-eabi/4.4.3/../../../../arm-eabi/lib/thumb/libg.a(lib_a-iswspace.o)
 .bss           0x020276c4        0x0 /opt/devkitpro/devkitARM/lib/gcc/arm-eabi/4.4.3/../../../../arm-eabi/lib/thumb/libg.a(lib_a-jp2uc.o)
 .bss           0x020276c4        0x0 /opt/devkitpro/devkitARM/lib/gcc/arm-eabi/4.4.3/../../../../arm-eabi/lib/thumb/libg.a(lib_a-makebuf.o)
 .bss           0x020276c4        0x0 /opt/devkitpro/devkitARM/lib/gcc/arm-eabi/4.4.3/../../../../arm-eabi/lib/thumb/libg.a(lib_a-mbsnrtowcs.o)
 .bss           0x020276c4        0x0 /opt/devkitpro/devkitARM/lib/gcc/arm-eabi/4.4.3/../../../../arm-eabi/lib/thumb/libg.a(lib_a-memchr.o)
 .bss           0x020276c4        0x0 /opt/devkitpro/devkitARM/lib/gcc/arm-eabi/4.4.3/../../../../arm-eabi/lib/thumb/libg.a(lib_a-reallocr.o)
 .bss           0x020276c4        0x0 /opt/devkitpro/devkitARM/lib/gcc/arm-eabi/4.4.3/../../../../arm-eabi/lib/thumb/libg.a(lib_a-sccl.o)
 .bss           0x020276c4        0x0 /opt/devkitpro/devkitARM/lib/gcc/arm-eabi/4.4.3/../../../../arm-eabi/lib/thumb/libg.a(lib_a-strtoul.o)
 .bss           0x020276c4        0x0 /opt/devkitpro/devkitARM/lib/gcc/arm-eabi/4.4.3/../../../../arm-eabi/lib/thumb/libg.a(lib_a-wbuf.o)
 .bss           0x020276c4        0x0 /opt/devkitpro/devkitARM/lib/gcc/arm-eabi/4.4.3/../../../../arm-eabi/lib/thumb/libg.a(lib_a-wcsnrtombs.o)
 .bss           0x020276c4        0x4 /opt/devkitpro/devkitARM/lib/gcc/arm-eabi/4.4.3/../../../../arm-eabi/lib/thumb/libg.a(lib_a-environ.o)
 .bss           0x020276c8        0x0 /opt/devkitpro/devkitARM/lib/gcc/arm-eabi/4.4.3/../../../../arm-eabi/lib/thumb/libg.a(lib_a-envlock.o)
 .bss           0x020276c8        0x0 /opt/devkitpro/devkitARM/lib/gcc/arm-eabi/4.4.3/../../../../arm-eabi/lib/thumb/libg.a(lib_a-fclose.o)
 .bss           0x020276c8        0x0 /opt/devkitpro/devkitARM/lib/gcc/arm-eabi/4.4.3/../../../../arm-eabi/lib/thumb/libsysbase.a(iosupport.o)
 .bss           0x020276c8        0x0 /opt/devkitpro/devkitARM/lib/gcc/arm-eabi/4.4.3/../../../../arm-eabi/lib/thumb/libsysbase.a(close.o)
 .bss           0x020276c8        0x0 /opt/devkitpro/devkitARM/lib/gcc/arm-eabi/4.4.3/../../../../arm-eabi/lib/thumb/libsysbase.a(fstat.o)
 .bss           0x020276c8        0x0 /opt/devkitpro/devkitARM/lib/gcc/arm-eabi/4.4.3/../../../../arm-eabi/lib/thumb/libsysbase.a(isatty.o)
 .bss           0x020276c8        0x0 /opt/devkitpro/devkitARM/lib/gcc/arm-eabi/4.4.3/../../../../arm-eabi/lib/thumb/libsysbase.a(lseek.o)
 .bss           0x020276c8        0x0 /opt/devkitpro/devkitARM/lib/gcc/arm-eabi/4.4.3/../../../../arm-eabi/lib/thumb/libsysbase.a(open.o)
 .bss           0x020276c8        0x0 /opt/devkitpro/devkitARM/lib/gcc/arm-eabi/4.4.3/../../../../arm-eabi/lib/thumb/libsysbase.a(read.o)
 .bss           0x020276c8        0x4 /opt/devkitpro/devkitARM/lib/gcc/arm-eabi/4.4.3/../../../../arm-eabi/lib/thumb/libsysbase.a(sbrk.o)
 .bss           0x020276cc        0x0 /opt/devkitpro/devkitARM/lib/gcc/arm-eabi/4.4.3/../../../../arm-eabi/lib/thumb/libsysbase.a(stat.o)
 .bss           0x020276cc        0x0 /opt/devkitpro/devkitARM/lib/gcc/arm-eabi/4.4.3/../../../../arm-eabi/lib/thumb/libsysbase.a(times.o)
 .bss           0x020276cc        0x0 /opt/devkitpro/devkitARM/lib/gcc/arm-eabi/4.4.3/../../../../arm-eabi/lib/thumb/libsysbase.a(write.o)
 .bss           0x020276cc        0x8 /opt/devkitpro/devkitARM/lib/gcc/arm-eabi/4.4.3/../../../../arm-eabi/lib/thumb/libsysbase.a(malloc_vars.o)
                0x020276cc                fake_heap_end
                0x020276d0                fake_heap_start
 .bss           0x020276d4        0x0 /opt/devkitpro/devkitARM/lib/gcc/arm-eabi/4.4.3/../../../../arm-eabi/lib/thumb/libsysbase.a(chdir.o)
 .bss           0x020276d4        0x0 /opt/devkitpro/devkitARM/lib/gcc/arm-eabi/4.4.3/../../../../arm-eabi/lib/thumb/libsysbase.a(build_argv.o)
 .bss           0x020276d4        0x8 /opt/devkitpro/devkitARM/lib/gcc/arm-eabi/4.4.3/../../../../arm-eabi/lib/thumb/libsysbase.a(syscall_support.o)
                0x020276d4                __syscalls
 .bss           0x020276dc     0x1000 /opt/devkitpro/devkitARM/lib/gcc/arm-eabi/4.4.3/../../../../arm-eabi/lib/thumb/libsysbase.a(handle_manager.o)
 .bss           0x020286dc        0x0 /opt/devkitpro/devkitARM/lib/gcc/arm-eabi/4.4.3/../../../../arm-eabi/lib/thumb/libg.a(lib_a-errno.o)
 .bss           0x020286dc        0x0 /opt/devkitpro/devkitARM/lib/gcc/arm-eabi/4.4.3/thumb/crtend.o
 .bss           0x020286dc        0x0 /opt/devkitpro/devkitARM/lib/gcc/arm-eabi/4.4.3/thumb/crtn.o
 *(COMMON)
 COMMON         0x020286dc       0x5c /opt/devkitpro/libnds/lib/libnds9.a(console.o)
                0x020286dc                currentCopy
 COMMON         0x02028738      0xa40 /opt/devkitpro/libnds/lib/libnds9.a(fifosystem.o)
                0x02028738                fifo_datamsg_data
                0x02028778                fifo_buffer
                0x02028f78                fifo_value32_func
                0x02028fb8                fifo_address_func
                0x02028ff8                fifo_value32_data
                0x02029038                fifo_value32_queue
                0x02029078                fifo_data_queue
                0x020290b8                fifo_address_data
                0x020290f8                fifo_datamsg_func
                0x02029138                fifo_address_queue
 COMMON         0x02029178      0x148 /opt/devkitpro/libnds/lib/libnds9.a(background.o)
                0x02029178                bgState
                0x020292b8                bgIsTextLut
 COMMON         0x020292c0        0x4 /opt/devkitpro/devkitARM/lib/gcc/arm-eabi/4.4.3/../../../../arm-eabi/lib/thumb/libsysbase.a(times.o)
                0x020292c0                punixTime
                0x020292c4                . = ALIGN (0x4)
                0x020292c4                __bss_end = ABSOLUTE (.)
                0x020292c4                __bss_end__ = __bss_end
                0x020292c4                _end = __bss_end__
                0x020292c4                __end__ = __bss_end__

.stab
 *(.stab)

.stabstr
 *(.stabstr)

.stab.excl
 *(.stab.excl)

.stab.exclstr
 *(.stab.exclstr)

.stab.index
 *(.stab.index)

.stab.indexstr
 *(.stab.indexstr)

.ARM.attributes
                0x00000000       0x2d load address 0x020273a8
 .ARM.attributes
                0x00000000       0x21 /opt/devkitpro/devkitARM/lib/gcc/arm-eabi/4.4.3/../../../../arm-eabi/lib/thumb/ds_arm9_crt0.o
 .ARM.attributes
                0x00000021       0x20 /opt/devkitpro/devkitARM/lib/gcc/arm-eabi/4.4.3/thumb/crti.o
 .ARM.attributes
                0x00000041       0x30 /opt/devkitpro/devkitARM/lib/gcc/arm-eabi/4.4.3/thumb/crtbegin.o
 .ARM.attributes
                0x00000071       0x14 load.bin.o
 .ARM.attributes
                0x00000085       0x27 bootstrap.o
 .ARM.attributes
                0x000000ac       0x27 nds_loader_arm9.o
 .ARM.attributes
                0x000000d3       0x27 /opt/devkitpro/libnds/lib/libfat.a(libfat.o)
 .ARM.attributes
                0x000000fa       0x27 /opt/devkitpro/libnds/lib/libfat.a(partition.o)
 .ARM.attributes
                0x00000121       0x27 /opt/devkitpro/libnds/lib/libfat.a(cache.o)
 .ARM.attributes
                0x00000148       0x27 /opt/devkitpro/libnds/lib/libfat.a(directory.o)
 .ARM.attributes
                0x0000016f       0x27 /opt/devkitpro/libnds/lib/libfat.a(disc.o)
 .ARM.attributes
                0x00000196       0x27 /opt/devkitpro/libnds/lib/libfat.a(fatdir.o)
 .ARM.attributes
                0x000001bd       0x27 /opt/devkitpro/libnds/lib/libfat.a(fatfile.o)
 .ARM.attributes
                0x000001e4       0x27 /opt/devkitpro/libnds/lib/libfat.a(file_allocation_table.o)
 .ARM.attributes
                0x0000020b       0x27 /opt/devkitpro/libnds/lib/libfat.a(filetime.o)
 .ARM.attributes
                0x00000232       0x27 /opt/devkitpro/libnds/lib/libnds9.a(console.o)
 .ARM.attributes
                0x00000259       0x27 /opt/devkitpro/libnds/lib/libnds9.a(dldi.o)
 .ARM.attributes
                0x00000280       0x27 /opt/devkitpro/libnds/lib/libnds9.a(initSystem.o)
 .ARM.attributes
                0x000002a7       0x27 /opt/devkitpro/libnds/lib/libnds9.a(fifosystem.o)
 .ARM.attributes
                0x000002ce       0x27 /opt/devkitpro/libnds/lib/libnds9.a(interrupts.o)
 .ARM.attributes
                0x000002f5       0x27 /opt/devkitpro/libnds/lib/libnds9.a(libnds_exit.o)
 .ARM.attributes
                0x0000031c       0x27 /opt/devkitpro/libnds/lib/libnds9.a(reset.o)
 .ARM.attributes
                0x00000343       0x1b /opt/devkitpro/libnds/lib/libnds9.a(dldi_stub.o)
 .ARM.attributes
                0x0000035e       0x21 /opt/devkitpro/libnds/lib/libnds9.a(mpu_setup.o)
 .ARM.attributes
                0x0000037f       0x1b /opt/devkitpro/libnds/lib/libnds9.a(biosCalls.o)
 .ARM.attributes
                0x0000039a       0x1b /opt/devkitpro/libnds/lib/libnds9.a(debugprint.o)
 .ARM.attributes
                0x000003b5       0x1b /opt/devkitpro/libnds/lib/libnds9.a(interruptDispatcher.o)
 .ARM.attributes
                0x000003d0       0x21 /opt/devkitpro/libnds/lib/libnds9.a(swiSoftReset.o)
 .ARM.attributes
                0x000003f1       0x14 /opt/devkitpro/libnds/lib/libnds9.a(default_font.bin.o)
 .ARM.attributes
                0x00000405       0x27 /opt/devkitpro/libnds/lib/libnds9.a(background.o)
 .ARM.attributes
                0x0000042c       0x27 /opt/devkitpro/libnds/lib/libnds9.a(system.o)
 .ARM.attributes
                0x00000453       0x27 /opt/devkitpro/libnds/lib/libnds9.a(trig.o)
 .ARM.attributes
                0x0000047a       0x20 /opt/devkitpro/devkitARM/lib/gcc/arm-eabi/4.4.3/thumb/libgcc.a(_udivsi3.o)
 .ARM.attributes
                0x0000049a       0x20 /opt/devkitpro/devkitARM/lib/gcc/arm-eabi/4.4.3/thumb/libgcc.a(_divsi3.o)
 .ARM.attributes
                0x000004ba       0x20 /opt/devkitpro/devkitARM/lib/gcc/arm-eabi/4.4.3/thumb/libgcc.a(_dvmd_tls.o)
 .ARM.attributes
                0x000004da       0x30 /opt/devkitpro/devkitARM/lib/gcc/arm-eabi/4.4.3/../../../../arm-eabi/lib/thumb/libg.a(lib_a-bsearch.o)
 .ARM.attributes
                0x0000050a       0x30 /opt/devkitpro/devkitARM/lib/gcc/arm-eabi/4.4.3/../../../../arm-eabi/lib/thumb/libg.a(lib_a-impure.o)
 .ARM.attributes
                0x0000053a       0x30 /opt/devkitpro/devkitARM/lib/gcc/arm-eabi/4.4.3/../../../../arm-eabi/lib/thumb/libg.a(lib_a-init.o)
 .ARM.attributes
                0x0000056a       0x30 /opt/devkitpro/devkitARM/lib/gcc/arm-eabi/4.4.3/../../../../arm-eabi/lib/thumb/libg.a(lib_a-iprintf.o)
 .ARM.attributes
                0x0000059a       0x30 /opt/devkitpro/devkitARM/lib/gcc/arm-eabi/4.4.3/../../../../arm-eabi/lib/thumb/libg.a(lib_a-lcltime_r.o)
 .ARM.attributes
                0x000005ca       0x30 /opt/devkitpro/devkitARM/lib/gcc/arm-eabi/4.4.3/../../../../arm-eabi/lib/thumb/libg.a(lib_a-locale.o)
 .ARM.attributes
                0x000005fa       0x30 /opt/devkitpro/devkitARM/lib/gcc/arm-eabi/4.4.3/../../../../arm-eabi/lib/thumb/libg.a(lib_a-malloc.o)
 .ARM.attributes
                0x0000062a       0x30 /opt/devkitpro/devkitARM/lib/gcc/arm-eabi/4.4.3/../../../../arm-eabi/lib/thumb/libg.a(lib_a-mallocr.o)
 .ARM.attributes
                0x0000065a       0x30 /opt/devkitpro/devkitARM/lib/gcc/arm-eabi/4.4.3/../../../../arm-eabi/lib/thumb/libg.a(lib_a-mbrtowc.o)
 .ARM.attributes
                0x0000068a       0x30 /opt/devkitpro/devkitARM/lib/gcc/arm-eabi/4.4.3/../../../../arm-eabi/lib/thumb/libg.a(lib_a-mbsrtowcs.o)
 .ARM.attributes
                0x000006ba       0x30 /opt/devkitpro/devkitARM/lib/gcc/arm-eabi/4.4.3/../../../../arm-eabi/lib/thumb/libg.a(lib_a-mbtowc_r.o)
 .ARM.attributes
                0x000006ea       0x30 /opt/devkitpro/devkitARM/lib/gcc/arm-eabi/4.4.3/../../../../arm-eabi/lib/thumb/libg.a(lib_a-memcmp.o)
 .ARM.attributes
                0x0000071a       0x30 /opt/devkitpro/devkitARM/lib/gcc/arm-eabi/4.4.3/../../../../arm-eabi/lib/thumb/libg.a(lib_a-memcpy.o)
 .ARM.attributes
                0x0000074a       0x30 /opt/devkitpro/devkitARM/lib/gcc/arm-eabi/4.4.3/../../../../arm-eabi/lib/thumb/libg.a(lib_a-memmove.o)
 .ARM.attributes
                0x0000077a       0x30 /opt/devkitpro/devkitARM/lib/gcc/arm-eabi/4.4.3/../../../../arm-eabi/lib/thumb/libg.a(lib_a-memset.o)
 .ARM.attributes
                0x000007aa       0x30 /opt/devkitpro/devkitARM/lib/gcc/arm-eabi/4.4.3/../../../../arm-eabi/lib/thumb/libg.a(lib_a-mktime.o)
 .ARM.attributes
                0x000007da       0x30 /opt/devkitpro/devkitARM/lib/gcc/arm-eabi/4.4.3/../../../../arm-eabi/lib/thumb/libg.a(lib_a-mktm_r.o)
 .ARM.attributes
                0x0000080a       0x30 /opt/devkitpro/devkitARM/lib/gcc/arm-eabi/4.4.3/../../../../arm-eabi/lib/thumb/libg.a(lib_a-mlock.o)
 .ARM.attributes
                0x0000083a       0x30 /opt/devkitpro/devkitARM/lib/gcc/arm-eabi/4.4.3/../../../../arm-eabi/lib/thumb/libg.a(lib_a-puts.o)
 .ARM.attributes
                0x0000086a       0x30 /opt/devkitpro/devkitARM/lib/gcc/arm-eabi/4.4.3/../../../../arm-eabi/lib/thumb/libg.a(lib_a-setvbuf.o)
 .ARM.attributes
                0x0000089a       0x30 /opt/devkitpro/devkitARM/lib/gcc/arm-eabi/4.4.3/../../../../arm-eabi/lib/thumb/libg.a(lib_a-siscanf.o)
 .ARM.attributes
                0x000008ca       0x30 /opt/devkitpro/devkitARM/lib/gcc/arm-eabi/4.4.3/../../../../arm-eabi/lib/thumb/libg.a(lib_a-stdio.o)
 .ARM.attributes
                0x000008fa       0x30 /opt/devkitpro/devkitARM/lib/gcc/arm-eabi/4.4.3/../../../../arm-eabi/lib/thumb/libg.a(lib_a-strcasecmp.o)
 .ARM.attributes
                0x0000092a       0x30 /opt/devkitpro/devkitARM/lib/gcc/arm-eabi/4.4.3/../../../../arm-eabi/lib/thumb/libg.a(lib_a-strcat.o)
 .ARM.attributes
                0x0000095a       0x30 /opt/devkitpro/devkitARM/lib/gcc/arm-eabi/4.4.3/../../../../arm-eabi/lib/thumb/libg.a(lib_a-strchr.o)
 .ARM.attributes
                0x0000098a       0x30 /opt/devkitpro/devkitARM/lib/gcc/arm-eabi/4.4.3/../../../../arm-eabi/lib/thumb/libg.a(lib_a-strcmp.o)
 .ARM.attributes
                0x000009ba       0x30 /opt/devkitpro/devkitARM/lib/gcc/arm-eabi/4.4.3/../../../../arm-eabi/lib/thumb/libg.a(lib_a-strcpy.o)
 .ARM.attributes
                0x000009ea       0x30 /opt/devkitpro/devkitARM/lib/gcc/arm-eabi/4.4.3/../../../../arm-eabi/lib/thumb/libg.a(lib_a-strlcpy.o)
 .ARM.attributes
                0x00000a1a       0x30 /opt/devkitpro/devkitARM/lib/gcc/arm-eabi/4.4.3/../../../../arm-eabi/lib/thumb/libg.a(lib_a-strlen.o)
 .ARM.attributes
                0x00000a4a       0x30 /opt/devkitpro/devkitARM/lib/gcc/arm-eabi/4.4.3/../../../../arm-eabi/lib/thumb/libg.a(lib_a-strncasecmp.o)
 .ARM.attributes
                0x00000a7a       0x30 /opt/devkitpro/devkitARM/lib/gcc/arm-eabi/4.4.3/../../../../arm-eabi/lib/thumb/libg.a(lib_a-strncmp.o)
 .ARM.attributes
                0x00000aaa       0x30 /opt/devkitpro/devkitARM/lib/gcc/arm-eabi/4.4.3/../../../../arm-eabi/lib/thumb/libg.a(lib_a-strncpy.o)
 .ARM.attributes
                0x00000ada       0x30 /opt/devkitpro/devkitARM/lib/gcc/arm-eabi/4.4.3/../../../../arm-eabi/lib/thumb/libg.a(lib_a-strnlen.o)
 .ARM.attributes
                0x00000b0a       0x30 /opt/devkitpro/devkitARM/lib/gcc/arm-eabi/4.4.3/../../../../arm-eabi/lib/thumb/libg.a(lib_a-strpbrk.o)
 .ARM.attributes
                0x00000b3a       0x30 /opt/devkitpro/devkitARM/lib/gcc/arm-eabi/4.4.3/../../../../arm-eabi/lib/thumb/libg.a(lib_a-strrchr.o)
 .ARM.attributes
                0x00000b6a       0x30 /opt/devkitpro/devkitARM/lib/gcc/arm-eabi/4.4.3/../../../../arm-eabi/lib/thumb/libg.a(lib_a-strtol.o)
 .ARM.attributes
                0x00000b9a       0x30 /opt/devkitpro/devkitARM/lib/gcc/arm-eabi/4.4.3/../../../../arm-eabi/lib/thumb/libg.a(lib_a-svfiscanf.o)
 .ARM.attributes
                0x00000bca       0x30 /opt/devkitpro/devkitARM/lib/gcc/arm-eabi/4.4.3/../../../../arm-eabi/lib/thumb/libg.a(lib_a-sysclose.o)
 .ARM.attributes
                0x00000bfa       0x30 /opt/devkitpro/devkitARM/lib/gcc/arm-eabi/4.4.3/../../../../arm-eabi/lib/thumb/libg.a(lib_a-syslseek.o)
 .ARM.attributes
                0x00000c2a       0x30 /opt/devkitpro/devkitARM/lib/gcc/arm-eabi/4.4.3/../../../../arm-eabi/lib/thumb/libg.a(lib_a-sysopen.o)
 .ARM.attributes
                0x00000c5a       0x30 /opt/devkitpro/devkitARM/lib/gcc/arm-eabi/4.4.3/../../../../arm-eabi/lib/thumb/libg.a(lib_a-sysread.o)
 .ARM.attributes
                0x00000c8a       0x30 /opt/devkitpro/devkitARM/lib/gcc/arm-eabi/4.4.3/../../../../arm-eabi/lib/thumb/libg.a(lib_a-sysstat.o)
 .ARM.attributes
                0x00000cba       0x30 /opt/devkitpro/devkitARM/lib/gcc/arm-eabi/4.4.3/../../../../arm-eabi/lib/thumb/libg.a(lib_a-time.o)
 .ARM.attributes
                0x00000cea       0x30 /opt/devkitpro/devkitARM/lib/gcc/arm-eabi/4.4.3/../../../../arm-eabi/lib/thumb/libg.a(lib_a-towlower.o)
 .ARM.attributes
                0x00000d1a       0x30 /opt/devkitpro/devkitARM/lib/gcc/arm-eabi/4.4.3/../../../../arm-eabi/lib/thumb/libg.a(lib_a-towupper.o)
 .ARM.attributes
                0x00000d4a       0x30 /opt/devkitpro/devkitARM/lib/gcc/arm-eabi/4.4.3/../../../../arm-eabi/lib/thumb/libg.a(lib_a-tzlock.o)
 .ARM.attributes
                0x00000d7a       0x30 /opt/devkitpro/devkitARM/lib/gcc/arm-eabi/4.4.3/../../../../arm-eabi/lib/thumb/libg.a(lib_a-tzvars.o)
 .ARM.attributes
                0x00000daa       0x30 /opt/devkitpro/devkitARM/lib/gcc/arm-eabi/4.4.3/../../../../arm-eabi/lib/thumb/libg.a(lib_a-ungetc.o)
 .ARM.attributes
                0x00000dda       0x30 /opt/devkitpro/devkitARM/lib/gcc/arm-eabi/4.4.3/../../../../arm-eabi/lib/thumb/libg.a(lib_a-vfiprintf.o)
 .ARM.attributes
                0x00000e0a       0x30 /opt/devkitpro/devkitARM/lib/gcc/arm-eabi/4.4.3/../../../../arm-eabi/lib/thumb/libg.a(lib_a-wcrtomb.o)
 .ARM.attributes
                0x00000e3a       0x30 /opt/devkitpro/devkitARM/lib/gcc/arm-eabi/4.4.3/../../../../arm-eabi/lib/thumb/libg.a(lib_a-wcsrtombs.o)
 .ARM.attributes
                0x00000e6a       0x30 /opt/devkitpro/devkitARM/lib/gcc/arm-eabi/4.4.3/../../../../arm-eabi/lib/thumb/libg.a(lib_a-wctob.o)
 .ARM.attributes
                0x00000e9a       0x30 /opt/devkitpro/devkitARM/lib/gcc/arm-eabi/4.4.3/../../../../arm-eabi/lib/thumb/libg.a(lib_a-wctomb_r.o)
 .ARM.attributes
                0x00000eca       0x30 /opt/devkitpro/devkitARM/lib/gcc/arm-eabi/4.4.3/../../../../arm-eabi/lib/thumb/libg.a(lib_a-wsetup.o)
 .ARM.attributes
                0x00000efa       0x30 /opt/devkitpro/devkitARM/lib/gcc/arm-eabi/4.4.3/../../../../arm-eabi/lib/thumb/libg.a(lib_a-ctype_.o)
 .ARM.attributes
                0x00000f2a       0x30 /opt/devkitpro/devkitARM/lib/gcc/arm-eabi/4.4.3/../../../../arm-eabi/lib/thumb/libg.a(lib_a-div.o)
 .ARM.attributes
                0x00000f5a       0x30 /opt/devkitpro/devkitARM/lib/gcc/arm-eabi/4.4.3/../../../../arm-eabi/lib/thumb/libg.a(lib_a-fflush.o)
 .ARM.attributes
                0x00000f8a       0x30 /opt/devkitpro/devkitARM/lib/gcc/arm-eabi/4.4.3/../../../../arm-eabi/lib/thumb/libg.a(lib_a-findfp.o)
 .ARM.attributes
                0x00000fba       0x30 /opt/devkitpro/devkitARM/lib/gcc/arm-eabi/4.4.3/../../../../arm-eabi/lib/thumb/libg.a(lib_a-fputwc.o)
 .ARM.attributes
                0x00000fea       0x30 /opt/devkitpro/devkitARM/lib/gcc/arm-eabi/4.4.3/../../../../arm-eabi/lib/thumb/libg.a(lib_a-freer.o)
 .ARM.attributes
                0x0000101a       0x30 /opt/devkitpro/devkitARM/lib/gcc/arm-eabi/4.4.3/../../../../arm-eabi/lib/thumb/libg.a(lib_a-fvwrite.o)
 .ARM.attributes
                0x0000104a       0x30 /opt/devkitpro/devkitARM/lib/gcc/arm-eabi/4.4.3/../../../../arm-eabi/lib/thumb/libg.a(lib_a-fwalk.o)
 .ARM.attributes
                0x0000107a       0x30 /opt/devkitpro/devkitARM/lib/gcc/arm-eabi/4.4.3/../../../../arm-eabi/lib/thumb/libg.a(lib_a-getenv_r.o)
 .ARM.attributes
                0x000010aa       0x30 /opt/devkitpro/devkitARM/lib/gcc/arm-eabi/4.4.3/../../../../arm-eabi/lib/thumb/libg.a(lib_a-gettzinfo.o)
 .ARM.attributes
                0x000010da       0x30 /opt/devkitpro/devkitARM/lib/gcc/arm-eabi/4.4.3/../../../../arm-eabi/lib/thumb/libg.a(lib_a-iswspace.o)
 .ARM.attributes
                0x0000110a       0x30 /opt/devkitpro/devkitARM/lib/gcc/arm-eabi/4.4.3/../../../../arm-eabi/lib/thumb/libg.a(lib_a-jp2uc.o)
 .ARM.attributes
                0x0000113a       0x30 /opt/devkitpro/devkitARM/lib/gcc/arm-eabi/4.4.3/../../../../arm-eabi/lib/thumb/libg.a(lib_a-makebuf.o)
 .ARM.attributes
                0x0000116a       0x30 /opt/devkitpro/devkitARM/lib/gcc/arm-eabi/4.4.3/../../../../arm-eabi/lib/thumb/libg.a(lib_a-mbsnrtowcs.o)
 .ARM.attributes
                0x0000119a       0x30 /opt/devkitpro/devkitARM/lib/gcc/arm-eabi/4.4.3/../../../../arm-eabi/lib/thumb/libg.a(lib_a-memchr.o)
 .ARM.attributes
                0x000011ca       0x30 /opt/devkitpro/devkitARM/lib/gcc/arm-eabi/4.4.3/../../../../arm-eabi/lib/thumb/libg.a(lib_a-reallocr.o)
 .ARM.attributes
                0x000011fa       0x30 /opt/devkitpro/devkitARM/lib/gcc/arm-eabi/4.4.3/../../../../arm-eabi/lib/thumb/libg.a(lib_a-sccl.o)
 .ARM.attributes
                0x0000122a       0x30 /opt/devkitpro/devkitARM/lib/gcc/arm-eabi/4.4.3/../../../../arm-eabi/lib/thumb/libg.a(lib_a-strtoul.o)
 .ARM.attributes
                0x0000125a       0x30 /opt/devkitpro/devkitARM/lib/gcc/arm-eabi/4.4.3/../../../../arm-eabi/lib/thumb/libg.a(lib_a-wbuf.o)
 .ARM.attributes
                0x0000128a       0x30 /opt/devkitpro/devkitARM/lib/gcc/arm-eabi/4.4.3/../../../../arm-eabi/lib/thumb/libg.a(lib_a-wcsnrtombs.o)
 .ARM.attributes
                0x000012ba       0x30 /opt/devkitpro/devkitARM/lib/gcc/arm-eabi/4.4.3/../../../../arm-eabi/lib/thumb/libg.a(lib_a-environ.o)
 .ARM.attributes
                0x000012ea       0x30 /opt/devkitpro/devkitARM/lib/gcc/arm-eabi/4.4.3/../../../../arm-eabi/lib/thumb/libg.a(lib_a-envlock.o)
 .ARM.attributes
                0x0000131a       0x30 /opt/devkitpro/devkitARM/lib/gcc/arm-eabi/4.4.3/../../../../arm-eabi/lib/thumb/libg.a(lib_a-fclose.o)
 .ARM.attributes
                0x0000134a       0x30 /opt/devkitpro/devkitARM/lib/gcc/arm-eabi/4.4.3/../../../../arm-eabi/lib/thumb/libsysbase.a(iosupport.o)
 .ARM.attributes
                0x0000137a       0x30 /opt/devkitpro/devkitARM/lib/gcc/arm-eabi/4.4.3/../../../../arm-eabi/lib/thumb/libsysbase.a(close.o)
 .ARM.attributes
                0x000013aa       0x30 /opt/devkitpro/devkitARM/lib/gcc/arm-eabi/4.4.3/../../../../arm-eabi/lib/thumb/libsysbase.a(fstat.o)
 .ARM.attributes
                0x000013da       0x30 /opt/devkitpro/devkitARM/lib/gcc/arm-eabi/4.4.3/../../../../arm-eabi/lib/thumb/libsysbase.a(isatty.o)
 .ARM.attributes
                0x0000140a       0x30 /opt/devkitpro/devkitARM/lib/gcc/arm-eabi/4.4.3/../../../../arm-eabi/lib/thumb/libsysbase.a(lseek.o)
 .ARM.attributes
                0x0000143a       0x30 /opt/devkitpro/devkitARM/lib/gcc/arm-eabi/4.4.3/../../../../arm-eabi/lib/thumb/libsysbase.a(open.o)
 .ARM.attributes
                0x0000146a       0x30 /opt/devkitpro/devkitARM/lib/gcc/arm-eabi/4.4.3/../../../../arm-eabi/lib/thumb/libsysbase.a(read.o)
 .ARM.attributes
                0x0000149a       0x30 /opt/devkitpro/devkitARM/lib/gcc/arm-eabi/4.4.3/../../../../arm-eabi/lib/thumb/libsysbase.a(sbrk.o)
 .ARM.attributes
                0x000014ca       0x30 /opt/devkitpro/devkitARM/lib/gcc/arm-eabi/4.4.3/../../../../arm-eabi/lib/thumb/libsysbase.a(stat.o)
 .ARM.attributes
                0x000014fa       0x30 /opt/devkitpro/devkitARM/lib/gcc/arm-eabi/4.4.3/../../../../arm-eabi/lib/thumb/libsysbase.a(times.o)
 .ARM.attributes
                0x0000152a       0x30 /opt/devkitpro/devkitARM/lib/gcc/arm-eabi/4.4.3/../../../../arm-eabi/lib/thumb/libsysbase.a(write.o)
 .ARM.attributes
                0x0000155a       0x30 /opt/devkitpro/devkitARM/lib/gcc/arm-eabi/4.4.3/../../../../arm-eabi/lib/thumb/libsysbase.a(malloc_vars.o)
 .ARM.attributes
                0x0000158a       0x30 /opt/devkitpro/devkitARM/lib/gcc/arm-eabi/4.4.3/../../../../arm-eabi/lib/thumb/libsysbase.a(chdir.o)
 .ARM.attributes
                0x000015ba       0x30 /opt/devkitpro/devkitARM/lib/gcc/arm-eabi/4.4.3/../../../../arm-eabi/lib/thumb/libsysbase.a(build_argv.o)
 .ARM.attributes
                0x000015ea       0x30 /opt/devkitpro/devkitARM/lib/gcc/arm-eabi/4.4.3/../../../../arm-eabi/lib/thumb/libsysbase.a(syscall_support.o)
 .ARM.attributes
                0x0000161a       0x30 /opt/devkitpro/devkitARM/lib/gcc/arm-eabi/4.4.3/../../../../arm-eabi/lib/thumb/libsysbase.a(handle_manager.o)
 .ARM.attributes
                0x0000164a       0x30 /opt/devkitpro/devkitARM/lib/gcc/arm-eabi/4.4.3/../../../../arm-eabi/lib/thumb/libg.a(lib_a-errno.o)
 .ARM.attributes
                0x0000167a       0x30 /opt/devkitpro/devkitARM/lib/gcc/arm-eabi/4.4.3/thumb/crtend.o
 .ARM.attributes
                0x000016aa       0x20 /opt/devkitpro/devkitARM/lib/gcc/arm-eabi/4.4.3/thumb/crtn.o

.comment        0x00000000       0x44 load address 0x020273a8
 *(.comment)
 .comment       0x00000000       0x22 /opt/devkitpro/devkitARM/lib/gcc/arm-eabi/4.4.3/thumb/crtbegin.o
                                 0x23 (size before relaxing)
 .comment       0x00000000       0x23 bootstrap.o
 .comment       0x00000000       0x23 nds_loader_arm9.o
 .comment       0x00000022       0x22 /opt/devkitpro/libnds/lib/libfat.a(libfat.o)
                                 0x23 (size before relaxing)
 .comment       0x00000000       0x23 /opt/devkitpro/libnds/lib/libfat.a(partition.o)
 .comment       0x00000000       0x23 /opt/devkitpro/libnds/lib/libfat.a(cache.o)
 .comment       0x00000000       0x23 /opt/devkitpro/libnds/lib/libfat.a(directory.o)
 .comment       0x00000000       0x23 /opt/devkitpro/libnds/lib/libfat.a(disc.o)
 .comment       0x00000000       0x23 /opt/devkitpro/libnds/lib/libfat.a(fatdir.o)
 .comment       0x00000000       0x23 /opt/devkitpro/libnds/lib/libfat.a(fatfile.o)
 .comment       0x00000000       0x23 /opt/devkitpro/libnds/lib/libfat.a(file_allocation_table.o)
 .comment       0x00000000       0x23 /opt/devkitpro/libnds/lib/libfat.a(filetime.o)
 .comment       0x00000000       0x23 /opt/devkitpro/libnds/lib/libnds9.a(console.o)
 .comment       0x00000000       0x23 /opt/devkitpro/libnds/lib/libnds9.a(dldi.o)
 .comment       0x00000000       0x23 /opt/devkitpro/libnds/lib/libnds9.a(initSystem.o)
 .comment       0x00000000       0x23 /opt/devkitpro/libnds/lib/libnds9.a(fifosystem.o)
 .comment       0x00000000       0x23 /opt/devkitpro/libnds/lib/libnds9.a(interrupts.o)
 .comment       0x00000000       0x23 /opt/devkitpro/libnds/lib/libnds9.a(libnds_exit.o)
 .comment       0x00000000       0x23 /opt/devkitpro/libnds/lib/libnds9.a(reset.o)
 .comment       0x00000000       0x23 /opt/devkitpro/libnds/lib/libnds9.a(background.o)
 .comment       0x00000000       0x23 /opt/devkitpro/libnds/lib/libnds9.a(system.o)
 .comment       0x00000000       0x23 /opt/devkitpro/libnds/lib/libnds9.a(trig.o)
 .comment       0x00000000       0x23 /opt/devkitpro/devkitARM/lib/gcc/arm-eabi/4.4.3/../../../../arm-eabi/lib/thumb/libg.a(lib_a-bsearch.o)
 .comment       0x00000000       0x23 /opt/devkitpro/devkitARM/lib/gcc/arm-eabi/4.4.3/../../../../arm-eabi/lib/thumb/libg.a(lib_a-impure.o)
 .comment       0x00000000       0x23 /opt/devkitpro/devkitARM/lib/gcc/arm-eabi/4.4.3/../../../../arm-eabi/lib/thumb/libg.a(lib_a-init.o)
 .comment       0x00000000       0x23 /opt/devkitpro/devkitARM/lib/gcc/arm-eabi/4.4.3/../../../../arm-eabi/lib/thumb/libg.a(lib_a-iprintf.o)
 .comment       0x00000000       0x23 /opt/devkitpro/devkitARM/lib/gcc/arm-eabi/4.4.3/../../../../arm-eabi/lib/thumb/libg.a(lib_a-lcltime_r.o)
 .comment       0x00000000       0x23 /opt/devkitpro/devkitARM/lib/gcc/arm-eabi/4.4.3/../../../../arm-eabi/lib/thumb/libg.a(lib_a-locale.o)
 .comment       0x00000000       0x23 /opt/devkitpro/devkitARM/lib/gcc/arm-eabi/4.4.3/../../../../arm-eabi/lib/thumb/libg.a(lib_a-malloc.o)
 .comment       0x00000000       0x23 /opt/devkitpro/devkitARM/lib/gcc/arm-eabi/4.4.3/../../../../arm-eabi/lib/thumb/libg.a(lib_a-mallocr.o)
 .comment       0x00000000       0x23 /opt/devkitpro/devkitARM/lib/gcc/arm-eabi/4.4.3/../../../../arm-eabi/lib/thumb/libg.a(lib_a-mbrtowc.o)
 .comment       0x00000000       0x23 /opt/devkitpro/devkitARM/lib/gcc/arm-eabi/4.4.3/../../../../arm-eabi/lib/thumb/libg.a(lib_a-mbsrtowcs.o)
 .comment       0x00000000       0x23 /opt/devkitpro/devkitARM/lib/gcc/arm-eabi/4.4.3/../../../../arm-eabi/lib/thumb/libg.a(lib_a-mbtowc_r.o)
 .comment       0x00000000       0x23 /opt/devkitpro/devkitARM/lib/gcc/arm-eabi/4.4.3/../../../../arm-eabi/lib/thumb/libg.a(lib_a-memcmp.o)
 .comment       0x00000000       0x23 /opt/devkitpro/devkitARM/lib/gcc/arm-eabi/4.4.3/../../../../arm-eabi/lib/thumb/libg.a(lib_a-memcpy.o)
 .comment       0x00000000       0x23 /opt/devkitpro/devkitARM/lib/gcc/arm-eabi/4.4.3/../../../../arm-eabi/lib/thumb/libg.a(lib_a-memmove.o)
 .comment       0x00000000       0x23 /opt/devkitpro/devkitARM/lib/gcc/arm-eabi/4.4.3/../../../../arm-eabi/lib/thumb/libg.a(lib_a-memset.o)
 .comment       0x00000000       0x23 /opt/devkitpro/devkitARM/lib/gcc/arm-eabi/4.4.3/../../../../arm-eabi/lib/thumb/libg.a(lib_a-mktime.o)
 .comment       0x00000000       0x23 /opt/devkitpro/devkitARM/lib/gcc/arm-eabi/4.4.3/../../../../arm-eabi/lib/thumb/libg.a(lib_a-mktm_r.o)
 .comment       0x00000000       0x23 /opt/devkitpro/devkitARM/lib/gcc/arm-eabi/4.4.3/../../../../arm-eabi/lib/thumb/libg.a(lib_a-mlock.o)
 .comment       0x00000000       0x23 /opt/devkitpro/devkitARM/lib/gcc/arm-eabi/4.4.3/../../../../arm-eabi/lib/thumb/libg.a(lib_a-puts.o)
 .comment       0x00000000       0x23 /opt/devkitpro/devkitARM/lib/gcc/arm-eabi/4.4.3/../../../../arm-eabi/lib/thumb/libg.a(lib_a-setvbuf.o)
 .comment       0x00000000       0x23 /opt/devkitpro/devkitARM/lib/gcc/arm-eabi/4.4.3/../../../../arm-eabi/lib/thumb/libg.a(lib_a-siscanf.o)
 .comment       0x00000000       0x23 /opt/devkitpro/devkitARM/lib/gcc/arm-eabi/4.4.3/../../../../arm-eabi/lib/thumb/libg.a(lib_a-stdio.o)
 .comment       0x00000000       0x23 /opt/devkitpro/devkitARM/lib/gcc/arm-eabi/4.4.3/../../../../arm-eabi/lib/thumb/libg.a(lib_a-strcasecmp.o)
 .comment       0x00000000       0x23 /opt/devkitpro/devkitARM/lib/gcc/arm-eabi/4.4.3/../../../../arm-eabi/lib/thumb/libg.a(lib_a-strcat.o)
 .comment       0x00000000       0x23 /opt/devkitpro/devkitARM/lib/gcc/arm-eabi/4.4.3/../../../../arm-eabi/lib/thumb/libg.a(lib_a-strchr.o)
 .comment       0x00000000       0x23 /opt/devkitpro/devkitARM/lib/gcc/arm-eabi/4.4.3/../../../../arm-eabi/lib/thumb/libg.a(lib_a-strcmp.o)
 .comment       0x00000000       0x23 /opt/devkitpro/devkitARM/lib/gcc/arm-eabi/4.4.3/../../../../arm-eabi/lib/thumb/libg.a(lib_a-strcpy.o)
 .comment       0x00000000       0x23 /opt/devkitpro/devkitARM/lib/gcc/arm-eabi/4.4.3/../../../../arm-eabi/lib/thumb/libg.a(lib_a-strlcpy.o)
 .comment       0x00000000       0x23 /opt/devkitpro/devkitARM/lib/gcc/arm-eabi/4.4.3/../../../../arm-eabi/lib/thumb/libg.a(lib_a-strlen.o)
 .comment       0x00000000       0x23 /opt/devkitpro/devkitARM/lib/gcc/arm-eabi/4.4.3/../../../../arm-eabi/lib/thumb/libg.a(lib_a-strncasecmp.o)
 .comment       0x00000000       0x23 /opt/devkitpro/devkitARM/lib/gcc/arm-eabi/4.4.3/../../../../arm-eabi/lib/thumb/libg.a(lib_a-strncmp.o)
 .comment       0x00000000       0x23 /opt/devkitpro/devkitARM/lib/gcc/arm-eabi/4.4.3/../../../../arm-eabi/lib/thumb/libg.a(lib_a-strncpy.o)
 .comment       0x00000000       0x23 /opt/devkitpro/devkitARM/lib/gcc/arm-eabi/4.4.3/../../../../arm-eabi/lib/thumb/libg.a(lib_a-strnlen.o)
 .comment       0x00000000       0x23 /opt/devkitpro/devkitARM/lib/gcc/arm-eabi/4.4.3/../../../../arm-eabi/lib/thumb/libg.a(lib_a-strpbrk.o)
 .comment       0x00000000       0x23 /opt/devkitpro/devkitARM/lib/gcc/arm-eabi/4.4.3/../../../../arm-eabi/lib/thumb/libg.a(lib_a-strrchr.o)
 .comment       0x00000000       0x23 /opt/devkitpro/devkitARM/lib/gcc/arm-eabi/4.4.3/../../../../arm-eabi/lib/thumb/libg.a(lib_a-strtol.o)
 .comment       0x00000000       0x23 /opt/devkitpro/devkitARM/lib/gcc/arm-eabi/4.4.3/../../../../arm-eabi/lib/thumb/libg.a(lib_a-svfiscanf.o)
 .comment       0x00000000       0x23 /opt/devkitpro/devkitARM/lib/gcc/arm-eabi/4.4.3/../../../../arm-eabi/lib/thumb/libg.a(lib_a-sysclose.o)
 .comment       0x00000000       0x23 /opt/devkitpro/devkitARM/lib/gcc/arm-eabi/4.4.3/../../../../arm-eabi/lib/thumb/libg.a(lib_a-syslseek.o)
 .comment       0x00000000       0x23 /opt/devkitpro/devkitARM/lib/gcc/arm-eabi/4.4.3/../../../../arm-eabi/lib/thumb/libg.a(lib_a-sysopen.o)
 .comment       0x00000000       0x23 /opt/devkitpro/devkitARM/lib/gcc/arm-eabi/4.4.3/../../../../arm-eabi/lib/thumb/libg.a(lib_a-sysread.o)
 .comment       0x00000000       0x23 /opt/devkitpro/devkitARM/lib/gcc/arm-eabi/4.4.3/../../../../arm-eabi/lib/thumb/libg.a(lib_a-sysstat.o)
 .comment       0x00000000       0x23 /opt/devkitpro/devkitARM/lib/gcc/arm-eabi/4.4.3/../../../../arm-eabi/lib/thumb/libg.a(lib_a-time.o)
 .comment       0x00000000       0x23 /opt/devkitpro/devkitARM/lib/gcc/arm-eabi/4.4.3/../../../../arm-eabi/lib/thumb/libg.a(lib_a-towlower.o)
 .comment       0x00000000       0x23 /opt/devkitpro/devkitARM/lib/gcc/arm-eabi/4.4.3/../../../../arm-eabi/lib/thumb/libg.a(lib_a-towupper.o)
 .comment       0x00000000       0x23 /opt/devkitpro/devkitARM/lib/gcc/arm-eabi/4.4.3/../../../../arm-eabi/lib/thumb/libg.a(lib_a-tzlock.o)
 .comment       0x00000000       0x23 /opt/devkitpro/devkitARM/lib/gcc/arm-eabi/4.4.3/../../../../arm-eabi/lib/thumb/libg.a(lib_a-tzvars.o)
 .comment       0x00000000       0x23 /opt/devkitpro/devkitARM/lib/gcc/arm-eabi/4.4.3/../../../../arm-eabi/lib/thumb/libg.a(lib_a-ungetc.o)
 .comment       0x00000000       0x23 /opt/devkitpro/devkitARM/lib/gcc/arm-eabi/4.4.3/../../../../arm-eabi/lib/thumb/libg.a(lib_a-vfiprintf.o)
 .comment       0x00000000       0x23 /opt/devkitpro/devkitARM/lib/gcc/arm-eabi/4.4.3/../../../../arm-eabi/lib/thumb/libg.a(lib_a-wcrtomb.o)
 .comment       0x00000000       0x23 /opt/devkitpro/devkitARM/lib/gcc/arm-eabi/4.4.3/../../../../arm-eabi/lib/thumb/libg.a(lib_a-wcsrtombs.o)
 .comment       0x00000000       0x23 /opt/devkitpro/devkitARM/lib/gcc/arm-eabi/4.4.3/../../../../arm-eabi/lib/thumb/libg.a(lib_a-wctob.o)
 .comment       0x00000000       0x23 /opt/devkitpro/devkitARM/lib/gcc/arm-eabi/4.4.3/../../../../arm-eabi/lib/thumb/libg.a(lib_a-wctomb_r.o)
 .comment       0x00000000       0x23 /opt/devkitpro/devkitARM/lib/gcc/arm-eabi/4.4.3/../../../../arm-eabi/lib/thumb/libg.a(lib_a-wsetup.o)
 .comment       0x00000000       0x23 /opt/devkitpro/devkitARM/lib/gcc/arm-eabi/4.4.3/../../../../arm-eabi/lib/thumb/libg.a(lib_a-ctype_.o)
 .comment       0x00000000       0x23 /opt/devkitpro/devkitARM/lib/gcc/arm-eabi/4.4.3/../../../../arm-eabi/lib/thumb/libg.a(lib_a-div.o)
 .comment       0x00000000       0x23 /opt/devkitpro/devkitARM/lib/gcc/arm-eabi/4.4.3/../../../../arm-eabi/lib/thumb/libg.a(lib_a-fflush.o)
 .comment       0x00000000       0x23 /opt/devkitpro/devkitARM/lib/gcc/arm-eabi/4.4.3/../../../../arm-eabi/lib/thumb/libg.a(lib_a-findfp.o)
 .comment       0x00000000       0x23 /opt/devkitpro/devkitARM/lib/gcc/arm-eabi/4.4.3/../../../../arm-eabi/lib/thumb/libg.a(lib_a-fputwc.o)
 .comment       0x00000000       0x23 /opt/devkitpro/devkitARM/lib/gcc/arm-eabi/4.4.3/../../../../arm-eabi/lib/thumb/libg.a(lib_a-freer.o)
 .comment       0x00000000       0x23 /opt/devkitpro/devkitARM/lib/gcc/arm-eabi/4.4.3/../../../../arm-eabi/lib/thumb/libg.a(lib_a-fvwrite.o)
 .comment       0x00000000       0x23 /opt/devkitpro/devkitARM/lib/gcc/arm-eabi/4.4.3/../../../../arm-eabi/lib/thumb/libg.a(lib_a-fwalk.o)
 .comment       0x00000000       0x23 /opt/devkitpro/devkitARM/lib/gcc/arm-eabi/4.4.3/../../../../arm-eabi/lib/thumb/libg.a(lib_a-getenv_r.o)
 .comment       0x00000000       0x23 /opt/devkitpro/devkitARM/lib/gcc/arm-eabi/4.4.3/../../../../arm-eabi/lib/thumb/libg.a(lib_a-gettzinfo.o)
 .comment       0x00000000       0x23 /opt/devkitpro/devkitARM/lib/gcc/arm-eabi/4.4.3/../../../../arm-eabi/lib/thumb/libg.a(lib_a-iswspace.o)
 .comment       0x00000000       0x23 /opt/devkitpro/devkitARM/lib/gcc/arm-eabi/4.4.3/../../../../arm-eabi/lib/thumb/libg.a(lib_a-jp2uc.o)
 .comment       0x00000000       0x23 /opt/devkitpro/devkitARM/lib/gcc/arm-eabi/4.4.3/../../../../arm-eabi/lib/thumb/libg.a(lib_a-makebuf.o)
 .comment       0x00000000       0x23 /opt/devkitpro/devkitARM/lib/gcc/arm-eabi/4.4.3/../../../../arm-eabi/lib/thumb/libg.a(lib_a-mbsnrtowcs.o)
 .comment       0x00000000       0x23 /opt/devkitpro/devkitARM/lib/gcc/arm-eabi/4.4.3/../../../../arm-eabi/lib/thumb/libg.a(lib_a-memchr.o)
 .comment       0x00000000       0x23 /opt/devkitpro/devkitARM/lib/gcc/arm-eabi/4.4.3/../../../../arm-eabi/lib/thumb/libg.a(lib_a-reallocr.o)
 .comment       0x00000000       0x23 /opt/devkitpro/devkitARM/lib/gcc/arm-eabi/4.4.3/../../../../arm-eabi/lib/thumb/libg.a(lib_a-sccl.o)
 .comment       0x00000000       0x23 /opt/devkitpro/devkitARM/lib/gcc/arm-eabi/4.4.3/../../../../arm-eabi/lib/thumb/libg.a(lib_a-strtoul.o)
 .comment       0x00000000       0x23 /opt/devkitpro/devkitARM/lib/gcc/arm-eabi/4.4.3/../../../../arm-eabi/lib/thumb/libg.a(lib_a-wbuf.o)
 .comment       0x00000000       0x23 /opt/devkitpro/devkitARM/lib/gcc/arm-eabi/4.4.3/../../../../arm-eabi/lib/thumb/libg.a(lib_a-wcsnrtombs.o)
 .comment       0x00000000       0x23 /opt/devkitpro/devkitARM/lib/gcc/arm-eabi/4.4.3/../../../../arm-eabi/lib/thumb/libg.a(lib_a-environ.o)
 .comment       0x00000000       0x23 /opt/devkitpro/devkitARM/lib/gcc/arm-eabi/4.4.3/../../../../arm-eabi/lib/thumb/libg.a(lib_a-envlock.o)
 .comment       0x00000000       0x23 /opt/devkitpro/devkitARM/lib/gcc/arm-eabi/4.4.3/../../../../arm-eabi/lib/thumb/libg.a(lib_a-fclose.o)
 .comment       0x00000000       0x23 /opt/devkitpro/devkitARM/lib/gcc/arm-eabi/4.4.3/../../../../arm-eabi/lib/thumb/libsysbase.a(iosupport.o)
 .comment       0x00000000       0x23 /opt/devkitpro/devkitARM/lib/gcc/arm-eabi/4.4.3/../../../../arm-eabi/lib/thumb/libsysbase.a(close.o)
 .comment       0x00000000       0x23 /opt/devkitpro/devkitARM/lib/gcc/arm-eabi/4.4.3/../../../../arm-eabi/lib/thumb/libsysbase.a(fstat.o)
 .comment       0x00000000       0x23 /opt/devkitpro/devkitARM/lib/gcc/arm-eabi/4.4.3/../../../../arm-eabi/lib/thumb/libsysbase.a(isatty.o)
 .comment       0x00000000       0x23 /opt/devkitpro/devkitARM/lib/gcc/arm-eabi/4.4.3/../../../../arm-eabi/lib/thumb/libsysbase.a(lseek.o)
 .comment       0x00000000       0x23 /opt/devkitpro/devkitARM/lib/gcc/arm-eabi/4.4.3/../../../../arm-eabi/lib/thumb/libsysbase.a(open.o)
 .comment       0x00000000       0x23 /opt/devkitpro/devkitARM/lib/gcc/arm-eabi/4.4.3/../../../../arm-eabi/lib/thumb/libsysbase.a(read.o)
 .comment       0x00000000       0x23 /opt/devkitpro/devkitARM/lib/gcc/arm-eabi/4.4.3/../../../../arm-eabi/lib/thumb/libsysbase.a(sbrk.o)
 .comment       0x00000000       0x23 /opt/devkitpro/devkitARM/lib/gcc/arm-eabi/4.4.3/../../../../arm-eabi/lib/thumb/libsysbase.a(stat.o)
 .comment       0x00000000       0x23 /opt/devkitpro/devkitARM/lib/gcc/arm-eabi/4.4.3/../../../../arm-eabi/lib/thumb/libsysbase.a(times.o)
 .comment       0x00000000       0x23 /opt/devkitpro/devkitARM/lib/gcc/arm-eabi/4.4.3/../../../../arm-eabi/lib/thumb/libsysbase.a(write.o)
 .comment       0x00000000       0x23 /opt/devkitpro/devkitARM/lib/gcc/arm-eabi/4.4.3/../../../../arm-eabi/lib/thumb/libsysbase.a(malloc_vars.o)
 .comment       0x00000000       0x23 /opt/devkitpro/devkitARM/lib/gcc/arm-eabi/4.4.3/../../../../arm-eabi/lib/thumb/libsysbase.a(chdir.o)
 .comment       0x00000000       0x23 /opt/devkitpro/devkitARM/lib/gcc/arm-eabi/4.4.3/../../../../arm-eabi/lib/thumb/libsysbase.a(build_argv.o)
 .comment       0x00000000       0x23 /opt/devkitpro/devkitARM/lib/gcc/arm-eabi/4.4.3/../../../../arm-eabi/lib/thumb/libsysbase.a(syscall_support.o)
 .comment       0x00000000       0x23 /opt/devkitpro/devkitARM/lib/gcc/arm-eabi/4.4.3/../../../../arm-eabi/lib/thumb/libsysbase.a(handle_manager.o)
 .comment       0x00000000       0x23 /opt/devkitpro/devkitARM/lib/gcc/arm-eabi/4.4.3/../../../../arm-eabi/lib/thumb/libg.a(lib_a-errno.o)
 .comment       0x00000000       0x23 /opt/devkitpro/devkitARM/lib/gcc/arm-eabi/4.4.3/thumb/crtend.o

.debug
 *(.debug)

.line
 *(.line)

.debug_srcinfo
 *(.debug_srcinfo)

.debug_sfnames
 *(.debug_sfnames)

.debug_aranges  0x00000000      0x340 load address 0x020273a8
 *(.debug_aranges)
 .debug_aranges
                0x00000000       0x20 bootstrap.o
 .debug_aranges
                0x00000020       0x20 nds_loader_arm9.o
 .debug_aranges
                0x00000040       0x20 /opt/devkitpro/libnds/lib/libfat.a(libfat.o)
 .debug_aranges
                0x00000060       0x20 /opt/devkitpro/libnds/lib/libfat.a(partition.o)
 .debug_aranges
                0x00000080       0x20 /opt/devkitpro/libnds/lib/libfat.a(cache.o)
 .debug_aranges
                0x000000a0       0x20 /opt/devkitpro/libnds/lib/libfat.a(directory.o)
 .debug_aranges
                0x000000c0       0x20 /opt/devkitpro/libnds/lib/libfat.a(fatdir.o)
 .debug_aranges
                0x000000e0       0x20 /opt/devkitpro/libnds/lib/libfat.a(fatfile.o)
 .debug_aranges
                0x00000100       0x20 /opt/devkitpro/libnds/lib/libfat.a(file_allocation_table.o)
 .debug_aranges
                0x00000120       0x20 /opt/devkitpro/libnds/lib/libfat.a(filetime.o)
 .debug_aranges
                0x00000140       0x20 /opt/devkitpro/libnds/lib/libnds9.a(console.o)
 .debug_aranges
                0x00000160       0x20 /opt/devkitpro/libnds/lib/libnds9.a(dldi.o)
 .debug_aranges
                0x00000180       0x20 /opt/devkitpro/libnds/lib/libnds9.a(initSystem.o)
 .debug_aranges
                0x000001a0       0x20 /opt/devkitpro/libnds/lib/libnds9.a(fifosystem.o)
 .debug_aranges
                0x000001c0       0x20 /opt/devkitpro/libnds/lib/libnds9.a(interrupts.o)
 .debug_aranges
                0x000001e0       0x20 /opt/devkitpro/libnds/lib/libnds9.a(libnds_exit.o)
 .debug_aranges
                0x00000200       0x20 /opt/devkitpro/libnds/lib/libnds9.a(reset.o)
 .debug_aranges
                0x00000220       0x20 /opt/devkitpro/libnds/lib/libnds9.a(dldi_stub.o)
 .debug_aranges
                0x00000240       0x20 /opt/devkitpro/libnds/lib/libnds9.a(mpu_setup.o)
 .debug_aranges
                0x00000260       0x20 /opt/devkitpro/libnds/lib/libnds9.a(biosCalls.o)
 .debug_aranges
                0x00000280       0x20 /opt/devkitpro/libnds/lib/libnds9.a(debugprint.o)
 .debug_aranges
                0x000002a0       0x20 /opt/devkitpro/libnds/lib/libnds9.a(interruptDispatcher.o)
 .debug_aranges
                0x000002c0       0x20 /opt/devkitpro/libnds/lib/libnds9.a(swiSoftReset.o)
 .debug_aranges
                0x000002e0       0x20 /opt/devkitpro/libnds/lib/libnds9.a(background.o)
 .debug_aranges
                0x00000300       0x20 /opt/devkitpro/libnds/lib/libnds9.a(system.o)
 .debug_aranges
                0x00000320       0x20 /opt/devkitpro/libnds/lib/libnds9.a(trig.o)

.debug_pubnames
                0x00000000      0xe13 load address 0x020273a8
 *(.debug_pubnames)
 .debug_pubnames
                0x00000000       0x1b bootstrap.o
 .debug_pubnames
                0x0000001b       0x2c nds_loader_arm9.o
 .debug_pubnames
                0x00000047       0x76 /opt/devkitpro/libnds/lib/libfat.a(libfat.o)
 .debug_pubnames
                0x000000bd       0xa3 /opt/devkitpro/libnds/lib/libfat.a(partition.o)
 .debug_pubnames
                0x00000160      0x162 /opt/devkitpro/libnds/lib/libfat.a(cache.o)
 .debug_pubnames
                0x000002c2      0x16f /opt/devkitpro/libnds/lib/libfat.a(directory.o)
 .debug_pubnames
                0x00000431       0x2b /opt/devkitpro/libnds/lib/libfat.a(disc.o)
 .debug_pubnames
                0x0000045c       0xd9 /opt/devkitpro/libnds/lib/libfat.a(fatdir.o)
 .debug_pubnames
                0x00000535       0xaf /opt/devkitpro/libnds/lib/libfat.a(fatfile.o)
 .debug_pubnames
                0x000005e4       0xd2 /opt/devkitpro/libnds/lib/libfat.a(file_allocation_table.o)
 .debug_pubnames
                0x000006b6       0x70 /opt/devkitpro/libnds/lib/libfat.a(filetime.o)
 .debug_pubnames
                0x00000726      0x12a /opt/devkitpro/libnds/lib/libnds9.a(console.o)
 .debug_pubnames
                0x00000850       0xba /opt/devkitpro/libnds/lib/libnds9.a(dldi.o)
 .debug_pubnames
                0x0000090a       0x21 /opt/devkitpro/libnds/lib/libnds9.a(initSystem.o)
 .debug_pubnames
                0x0000092b      0x259 /opt/devkitpro/libnds/lib/libnds9.a(fifosystem.o)
 .debug_pubnames
                0x00000b84       0x80 /opt/devkitpro/libnds/lib/libnds9.a(interrupts.o)
 .debug_pubnames
                0x00000c04       0x38 /opt/devkitpro/libnds/lib/libnds9.a(libnds_exit.o)
 .debug_pubnames
                0x00000c3c       0x20 /opt/devkitpro/libnds/lib/libnds9.a(reset.o)
 .debug_pubnames
                0x00000c5c       0xab /opt/devkitpro/libnds/lib/libnds9.a(background.o)
 .debug_pubnames
                0x00000d07       0x73 /opt/devkitpro/libnds/lib/libnds9.a(system.o)
 .debug_pubnames
                0x00000d7a       0x99 /opt/devkitpro/libnds/lib/libnds9.a(trig.o)

.debug_info     0x00000000    0x10f69 load address 0x020273a8
 *(.debug_info)
 .debug_info    0x00000000      0x372 bootstrap.o
 .debug_info    0x00000372     0x127e nds_loader_arm9.o
 .debug_info    0x000015f0     0x1847 /opt/devkitpro/libnds/lib/libfat.a(libfat.o)
 .debug_info    0x00002e37     0x1a59 /opt/devkitpro/libnds/lib/libfat.a(partition.o)
 .debug_info    0x00004890      0xcb1 /opt/devkitpro/libnds/lib/libfat.a(cache.o)
 .debug_info    0x00005541     0x17c7 /opt/devkitpro/libnds/lib/libfat.a(directory.o)
 .debug_info    0x00006d08      0x247 /opt/devkitpro/libnds/lib/libfat.a(disc.o)
 .debug_info    0x00006f4f     0x1900 /opt/devkitpro/libnds/lib/libfat.a(fatdir.o)
 .debug_info    0x0000884f     0x1df4 /opt/devkitpro/libnds/lib/libfat.a(fatfile.o)
 .debug_info    0x0000a643      0x7e2 /opt/devkitpro/libnds/lib/libfat.a(file_allocation_table.o)
 .debug_info    0x0000ae25      0x1d6 /opt/devkitpro/libnds/lib/libfat.a(filetime.o)
 .debug_info    0x0000affb     0x1e85 /opt/devkitpro/libnds/lib/libnds9.a(console.o)
 .debug_info    0x0000ce80      0x594 /opt/devkitpro/libnds/lib/libnds9.a(dldi.o)
 .debug_info    0x0000d414      0xd2f /opt/devkitpro/libnds/lib/libnds9.a(initSystem.o)
 .debug_info    0x0000e143      0xf8d /opt/devkitpro/libnds/lib/libnds9.a(fifosystem.o)
 .debug_info    0x0000f0d0      0x3ec /opt/devkitpro/libnds/lib/libnds9.a(interrupts.o)
 .debug_info    0x0000f4bc      0x2a7 /opt/devkitpro/libnds/lib/libnds9.a(libnds_exit.o)
 .debug_info    0x0000f763       0xa3 /opt/devkitpro/libnds/lib/libnds9.a(reset.o)
 .debug_info    0x0000f806       0xbc /opt/devkitpro/libnds/lib/libnds9.a(dldi_stub.o)
 .debug_info    0x0000f8c2       0xbe /opt/devkitpro/libnds/lib/libnds9.a(mpu_setup.o)
 .debug_info    0x0000f980       0xb9 /opt/devkitpro/libnds/lib/libnds9.a(biosCalls.o)
 .debug_info    0x0000fa39       0xbc /opt/devkitpro/libnds/lib/libnds9.a(debugprint.o)
 .debug_info    0x0000faf5       0xc5 /opt/devkitpro/libnds/lib/libnds9.a(interruptDispatcher.o)
 .debug_info    0x0000fbba       0xbc /opt/devkitpro/libnds/lib/libnds9.a(swiSoftReset.o)
 .debug_info    0x0000fc76      0x883 /opt/devkitpro/libnds/lib/libnds9.a(background.o)
 .debug_info    0x000104f9      0x64e /opt/devkitpro/libnds/lib/libnds9.a(system.o)
 .debug_info    0x00010b47      0x422 /opt/devkitpro/libnds/lib/libnds9.a(trig.o)

.debug_abbrev   0x00000000     0x2eeb load address 0x020273a8
 *(.debug_abbrev)
 .debug_abbrev  0x00000000      0x142 bootstrap.o
 .debug_abbrev  0x00000142      0x2da nds_loader_arm9.o
 .debug_abbrev  0x0000041c      0x2a6 /opt/devkitpro/libnds/lib/libfat.a(libfat.o)
 .debug_abbrev  0x000006c2      0x2f9 /opt/devkitpro/libnds/lib/libfat.a(partition.o)
 .debug_abbrev  0x000009bb      0x308 /opt/devkitpro/libnds/lib/libfat.a(cache.o)
 .debug_abbrev  0x00000cc3      0x3ac /opt/devkitpro/libnds/lib/libfat.a(directory.o)
 .debug_abbrev  0x0000106f       0xd9 /opt/devkitpro/libnds/lib/libfat.a(disc.o)
 .debug_abbrev  0x00001148      0x342 /opt/devkitpro/libnds/lib/libfat.a(fatdir.o)
 .debug_abbrev  0x0000148a      0x349 /opt/devkitpro/libnds/lib/libfat.a(fatfile.o)
 .debug_abbrev  0x000017d3      0x1dd /opt/devkitpro/libnds/lib/libfat.a(file_allocation_table.o)
 .debug_abbrev  0x000019b0       0xaa /opt/devkitpro/libnds/lib/libfat.a(filetime.o)
 .debug_abbrev  0x00001a5a      0x3fe /opt/devkitpro/libnds/lib/libnds9.a(console.o)
 .debug_abbrev  0x00001e58      0x20e /opt/devkitpro/libnds/lib/libnds9.a(dldi.o)
 .debug_abbrev  0x00002066      0x220 /opt/devkitpro/libnds/lib/libnds9.a(initSystem.o)
 .debug_abbrev  0x00002286      0x317 /opt/devkitpro/libnds/lib/libnds9.a(fifosystem.o)
 .debug_abbrev  0x0000259d      0x1bd /opt/devkitpro/libnds/lib/libnds9.a(interrupts.o)
 .debug_abbrev  0x0000275a      0x138 /opt/devkitpro/libnds/lib/libnds9.a(libnds_exit.o)
 .debug_abbrev  0x00002892       0x66 /opt/devkitpro/libnds/lib/libnds9.a(reset.o)
 .debug_abbrev  0x000028f8       0x14 /opt/devkitpro/libnds/lib/libnds9.a(dldi_stub.o)
 .debug_abbrev  0x0000290c       0x14 /opt/devkitpro/libnds/lib/libnds9.a(mpu_setup.o)
 .debug_abbrev  0x00002920       0x14 /opt/devkitpro/libnds/lib/libnds9.a(biosCalls.o)
 .debug_abbrev  0x00002934       0x14 /opt/devkitpro/libnds/lib/libnds9.a(debugprint.o)
 .debug_abbrev  0x00002948       0x14 /opt/devkitpro/libnds/lib/libnds9.a(interruptDispatcher.o)
 .debug_abbrev  0x0000295c       0x14 /opt/devkitpro/libnds/lib/libnds9.a(swiSoftReset.o)
 .debug_abbrev  0x00002970      0x25e /opt/devkitpro/libnds/lib/libnds9.a(background.o)
 .debug_abbrev  0x00002bce      0x1a1 /opt/devkitpro/libnds/lib/libnds9.a(system.o)
 .debug_abbrev  0x00002d6f      0x17c /opt/devkitpro/libnds/lib/libnds9.a(trig.o)

.debug_line     0x00000000     0x4c77 load address 0x020273a8
 *(.debug_line)
 .debug_line    0x00000000      0x161 bootstrap.o
 .debug_line    0x00000161      0x3fb nds_loader_arm9.o
 .debug_line    0x0000055c      0x3b7 /opt/devkitpro/libnds/lib/libfat.a(libfat.o)
 .debug_line    0x00000913      0x464 /opt/devkitpro/libnds/lib/libfat.a(partition.o)
 .debug_line    0x00000d77      0x353 /opt/devkitpro/libnds/lib/libfat.a(cache.o)
 .debug_line    0x000010ca      0x7f1 /opt/devkitpro/libnds/lib/libfat.a(directory.o)
 .debug_line    0x000018bb      0x10a /opt/devkitpro/libnds/lib/libfat.a(disc.o)
 .debug_line    0x000019c5      0x55c /opt/devkitpro/libnds/lib/libfat.a(fatdir.o)
 .debug_line    0x00001f21      0x7d8 /opt/devkitpro/libnds/lib/libfat.a(fatfile.o)
 .debug_line    0x000026f9      0x266 /opt/devkitpro/libnds/lib/libfat.a(file_allocation_table.o)
 .debug_line    0x0000295f      0x161 /opt/devkitpro/libnds/lib/libfat.a(filetime.o)
 .debug_line    0x00002ac0      0x6a7 /opt/devkitpro/libnds/lib/libnds9.a(console.o)
 .debug_line    0x00003167      0x2fd /opt/devkitpro/libnds/lib/libnds9.a(dldi.o)
 .debug_line    0x00003464      0x336 /opt/devkitpro/libnds/lib/libnds9.a(initSystem.o)
 .debug_line    0x0000379a      0x5cc /opt/devkitpro/libnds/lib/libnds9.a(fifosystem.o)
 .debug_line    0x00003d66      0x1b2 /opt/devkitpro/libnds/lib/libnds9.a(interrupts.o)
 .debug_line    0x00003f18      0x1c4 /opt/devkitpro/libnds/lib/libnds9.a(libnds_exit.o)
 .debug_line    0x000040dc      0x139 /opt/devkitpro/libnds/lib/libnds9.a(reset.o)
 .debug_line    0x00004215       0x88 /opt/devkitpro/libnds/lib/libnds9.a(dldi_stub.o)
 .debug_line    0x0000429d       0xde /opt/devkitpro/libnds/lib/libnds9.a(mpu_setup.o)
 .debug_line    0x0000437b       0xbc /opt/devkitpro/libnds/lib/libnds9.a(biosCalls.o)
 .debug_line    0x00004437       0x91 /opt/devkitpro/libnds/lib/libnds9.a(debugprint.o)
 .debug_line    0x000044c8       0xbf /opt/devkitpro/libnds/lib/libnds9.a(interruptDispatcher.o)
 .debug_line    0x00004587       0x8e /opt/devkitpro/libnds/lib/libnds9.a(swiSoftReset.o)
 .debug_line    0x00004615      0x276 /opt/devkitpro/libnds/lib/libnds9.a(background.o)
 .debug_line    0x0000488b      0x24f /opt/devkitpro/libnds/lib/libnds9.a(system.o)
 .debug_line    0x00004ada      0x19d /opt/devkitpro/libnds/lib/libnds9.a(trig.o)

.debug_frame    0x00000000     0x1598 load address 0x020273a8
 *(.debug_frame)
 .debug_frame   0x00000000       0x2c bootstrap.o
 .debug_frame   0x0000002c       0x6c nds_loader_arm9.o
 .debug_frame   0x00000098       0xf0 /opt/devkitpro/libnds/lib/libfat.a(libfat.o)
 .debug_frame   0x00000188       0xb8 /opt/devkitpro/libnds/lib/libfat.a(partition.o)
 .debug_frame   0x00000240      0x20c /opt/devkitpro/libnds/lib/libfat.a(cache.o)
 .debug_frame   0x0000044c      0x2c8 /opt/devkitpro/libnds/lib/libfat.a(directory.o)
 .debug_frame   0x00000714      0x1a8 /opt/devkitpro/libnds/lib/libfat.a(fatdir.o)
 .debug_frame   0x000008bc      0x208 /opt/devkitpro/libnds/lib/libfat.a(fatfile.o)
 .debug_frame   0x00000ac4      0x148 /opt/devkitpro/libnds/lib/libfat.a(file_allocation_table.o)
 .debug_frame   0x00000c0c       0x6c /opt/devkitpro/libnds/lib/libfat.a(filetime.o)
 .debug_frame   0x00000c78      0x1ec /opt/devkitpro/libnds/lib/libnds9.a(console.o)
 .debug_frame   0x00000e64       0xbc /opt/devkitpro/libnds/lib/libnds9.a(dldi.o)
 .debug_frame   0x00000f20       0x30 /opt/devkitpro/libnds/lib/libnds9.a(initSystem.o)
 .debug_frame   0x00000f50      0x2bc /opt/devkitpro/libnds/lib/libnds9.a(fifosystem.o)
 .debug_frame   0x0000120c       0xbc /opt/devkitpro/libnds/lib/libnds9.a(interrupts.o)
 .debug_frame   0x000012c8       0x3c /opt/devkitpro/libnds/lib/libnds9.a(libnds_exit.o)
 .debug_frame   0x00001304       0x28 /opt/devkitpro/libnds/lib/libnds9.a(reset.o)
 .debug_frame   0x0000132c       0xcc /opt/devkitpro/libnds/lib/libnds9.a(background.o)
 .debug_frame   0x000013f8       0xb8 /opt/devkitpro/libnds/lib/libnds9.a(system.o)
 .debug_frame   0x000014b0       0xe8 /opt/devkitpro/libnds/lib/libnds9.a(trig.o)

.debug_str      0x00000000     0x3e4e load address 0x020273a8
 *(.debug_str)
 .debug_str     0x00000000      0x21e bootstrap.o
                                0x27c (size before relaxing)
 .debug_str     0x0000021e      0x7ec nds_loader_arm9.o
                                0xae7 (size before relaxing)
 .debug_str     0x00000a0a      0x7f3 /opt/devkitpro/libnds/lib/libfat.a(libfat.o)
                                0xc12 (size before relaxing)
 .debug_str     0x000011fd      0x449 /opt/devkitpro/libnds/lib/libfat.a(partition.o)
                                0xf25 (size before relaxing)
 .debug_str     0x00001646      0x268 /opt/devkitpro/libnds/lib/libfat.a(cache.o)
                                0x526 (size before relaxing)
 .debug_str     0x000018ae      0x782 /opt/devkitpro/libnds/lib/libfat.a(directory.o)
                                0xcc8 (size before relaxing)
 .debug_str     0x00002030       0x4a /opt/devkitpro/libnds/lib/libfat.a(disc.o)
                                0x229 (size before relaxing)
 .debug_str     0x0000207a      0x1c2 /opt/devkitpro/libnds/lib/libfat.a(fatdir.o)
                                0xca7 (size before relaxing)
 .debug_str     0x0000223c      0x1e5 /opt/devkitpro/libnds/lib/libfat.a(fatfile.o)
                                0xd26 (size before relaxing)
 .debug_str     0x00002421      0x167 /opt/devkitpro/libnds/lib/libfat.a(file_allocation_table.o)
                                0x530 (size before relaxing)
 .debug_str     0x00002588       0xb4 /opt/devkitpro/libnds/lib/libfat.a(filetime.o)
                                0x1ac (size before relaxing)
 .debug_str     0x0000263c      0x715 /opt/devkitpro/libnds/lib/libnds9.a(console.o)
                                0xffe (size before relaxing)
 .debug_str     0x00002d51      0x126 /opt/devkitpro/libnds/lib/libnds9.a(dldi.o)
                                0x3cf (size before relaxing)
 .debug_str     0x00002e77      0x215 /opt/devkitpro/libnds/lib/libnds9.a(initSystem.o)
                                0x7f1 (size before relaxing)
 .debug_str     0x0000308c      0x520 /opt/devkitpro/libnds/lib/libnds9.a(fifosystem.o)
                                0x723 (size before relaxing)
 .debug_str     0x000035ac      0x128 /opt/devkitpro/libnds/lib/libnds9.a(interrupts.o)
                                0x327 (size before relaxing)
 .debug_str     0x000036d4      0x133 /opt/devkitpro/libnds/lib/libnds9.a(libnds_exit.o)
                                0x293 (size before relaxing)
 .debug_str     0x00003807       0x5a /opt/devkitpro/libnds/lib/libnds9.a(reset.o)
                                 0xed (size before relaxing)
 .debug_str     0x00003861      0x301 /opt/devkitpro/libnds/lib/libnds9.a(background.o)
                                0x662 (size before relaxing)
 .debug_str     0x00003b62      0x230 /opt/devkitpro/libnds/lib/libnds9.a(system.o)
                                0x48a (size before relaxing)
 .debug_str     0x00003d92       0xbc /opt/devkitpro/libnds/lib/libnds9.a(trig.o)
                                0x192 (size before relaxing)

.debug_loc      0x00000000     0x8141 load address 0x020273a8
 *(.debug_loc)
 .debug_loc     0x00000000       0x45 bootstrap.o
 .debug_loc     0x00000045      0x48b nds_loader_arm9.o
 .debug_loc     0x000004d0      0x4f4 /opt/devkitpro/libnds/lib/libfat.a(libfat.o)
 .debug_loc     0x000009c4      0x32b /opt/devkitpro/libnds/lib/libfat.a(partition.o)
 .debug_loc     0x00000cef      0xd0c /opt/devkitpro/libnds/lib/libfat.a(cache.o)
 .debug_loc     0x000019fb     0x17e9 /opt/devkitpro/libnds/lib/libfat.a(directory.o)
 .debug_loc     0x000031e4      0x984 /opt/devkitpro/libnds/lib/libfat.a(fatdir.o)
 .debug_loc     0x00003b68     0x150b /opt/devkitpro/libnds/lib/libfat.a(fatfile.o)
 .debug_loc     0x00005073      0x883 /opt/devkitpro/libnds/lib/libfat.a(file_allocation_table.o)
 .debug_loc     0x000058f6       0xa7 /opt/devkitpro/libnds/lib/libfat.a(filetime.o)
 .debug_loc     0x0000599d      0xd62 /opt/devkitpro/libnds/lib/libnds9.a(console.o)
 .debug_loc     0x000066ff      0x29a /opt/devkitpro/libnds/lib/libnds9.a(dldi.o)
 .debug_loc     0x00006999       0x32 /opt/devkitpro/libnds/lib/libnds9.a(initSystem.o)
 .debug_loc     0x000069cb      0xc6e /opt/devkitpro/libnds/lib/libnds9.a(fifosystem.o)
 .debug_loc     0x00007639      0x150 /opt/devkitpro/libnds/lib/libnds9.a(interrupts.o)
 .debug_loc     0x00007789       0x66 /opt/devkitpro/libnds/lib/libnds9.a(libnds_exit.o)
 .debug_loc     0x000077ef       0x32 /opt/devkitpro/libnds/lib/libnds9.a(reset.o)
 .debug_loc     0x00007821      0x29b /opt/devkitpro/libnds/lib/libnds9.a(background.o)
 .debug_loc     0x00007abc      0x177 /opt/devkitpro/libnds/lib/libnds9.a(system.o)
 .debug_loc     0x00007c33      0x50e /opt/devkitpro/libnds/lib/libnds9.a(trig.o)

.debug_macinfo
 *(.debug_macinfo)

.debug_weaknames
 *(.debug_weaknames)

.debug_funcnames
 *(.debug_funcnames)

.debug_typenames
 *(.debug_typenames)

.debug_varnames
 *(.debug_varnames)

.stack          0x00080000        0x0 load address 0x020273a8
                0x00080000                _stack = .
 *(.stack)
LOAD /opt/devkitpro/devkitARM/lib/gcc/arm-eabi/4.4.3/../../../../arm-eabi/lib/thumb/ds_arm9_crt0.o
LOAD /opt/devkitpro/devkitARM/lib/gcc/arm-eabi/4.4.3/thumb/crti.o
LOAD /opt/devkitpro/devkitARM/lib/gcc/arm-eabi/4.4.3/thumb/crtbegin.o
LOAD load.bin.o
LOAD bootstrap.o
LOAD nds_loader_arm9.o
LOAD /opt/devkitpro/libnds/lib/libfat.a
LOAD /opt/devkitpro/libnds/lib/libnds9.a
START GROUP
LOAD /opt/devkitpro/devkitARM/lib/gcc/arm-eabi/4.4.3/thumb/libgcc.a
LOAD /opt/devkitpro/devkitARM/lib/gcc/arm-eabi/4.4.3/../../../../arm-eabi/lib/thumb/libg.a
LOAD /opt/devkitpro/devkitARM/lib/gcc/arm-eabi/4.4.3/../../../../arm-eabi/lib/thumb/libc.a
LOAD /opt/devkitpro/devkitARM/lib/gcc/arm-eabi/4.4.3/../../../../arm-eabi/lib/thumb/libsysbase.a
END GROUP
LOAD /opt/devkitpro/devkitARM/lib/gcc/arm-eabi/4.4.3/thumb/crtend.o
LOAD /opt/devkitpro/devkitARM/lib/gcc/arm-eabi/4.4.3/thumb/crtn.o
OUTPUT(/home/andrew/nzoneurlstacksmash/loadnds/arm9/loadnds.arm9.elf elf32-littlearm)

.debug_ranges   0x00000000     0x1150 load address 0x020273a8
 .debug_ranges  0x00000000      0x148 nds_loader_arm9.o
 .debug_ranges  0x00000148       0x48 /opt/devkitpro/libnds/lib/libfat.a(libfat.o)
 .debug_ranges  0x00000190       0xf0 /opt/devkitpro/libnds/lib/libfat.a(partition.o)
 .debug_ranges  0x00000280       0x88 /opt/devkitpro/libnds/lib/libfat.a(cache.o)
 .debug_ranges  0x00000308      0x2f8 /opt/devkitpro/libnds/lib/libfat.a(directory.o)
 .debug_ranges  0x00000600       0xa0 /opt/devkitpro/libnds/lib/libfat.a(fatdir.o)
 .debug_ranges  0x000006a0      0x2a0 /opt/devkitpro/libnds/lib/libfat.a(fatfile.o)
 .debug_ranges  0x00000940       0x38 /opt/devkitpro/libnds/lib/libfat.a(file_allocation_table.o)
 .debug_ranges  0x00000978      0x250 /opt/devkitpro/libnds/lib/libnds9.a(console.o)
 .debug_ranges  0x00000bc8       0x30 /opt/devkitpro/libnds/lib/libnds9.a(dldi.o)
 .debug_ranges  0x00000bf8      0x410 /opt/devkitpro/libnds/lib/libnds9.a(fifosystem.o)
 .debug_ranges  0x00001008       0x30 /opt/devkitpro/libnds/lib/libnds9.a(interrupts.o)
 .debug_ranges  0x00001038       0x78 /opt/devkitpro/libnds/lib/libnds9.a(background.o)
 .debug_ranges  0x000010b0       0xa0 /opt/devkitpro/libnds/lib/libnds9.a(trig.o)
